
classifier_ha.elf:     file format elf32-littlenios2
classifier_ha.elf
architecture: nios2:r1, flags 0x00000112:
EXEC_P, HAS_SYMS, D_PAGED
start address 0x02040244

Program Header:
    LOAD off    0x00001000 vaddr 0x02040000 paddr 0x02040000 align 2**12
         filesz 0x00000020 memsz 0x00000020 flags r-x
    LOAD off    0x00001020 vaddr 0x02040020 paddr 0x02040020 align 2**12
         filesz 0x0002b348 memsz 0x0002b348 flags r-x
    LOAD off    0x0002c368 vaddr 0x0206b368 paddr 0x0206cf88 align 2**12
         filesz 0x00001c20 memsz 0x00001c20 flags rw-
    LOAD off    0x0002eba8 vaddr 0x0206eba8 paddr 0x0206eba8 align 2**12
         filesz 0x00000000 memsz 0x000001a0 flags rw-

Sections:
Idx Name          Size      VMA       LMA       File off  Algn
  0 .entry        00000020  02040000  02040000  00001000  2**5
                  CONTENTS, ALLOC, LOAD, READONLY, CODE
  1 .exceptions   00000224  02040020  02040020  00001020  2**2
                  CONTENTS, ALLOC, LOAD, READONLY, CODE
  2 .text         00022908  02040244  02040244  00001244  2**2
                  CONTENTS, ALLOC, LOAD, READONLY, CODE
  3 .rodata       0000881c  02062b4c  02062b4c  00023b4c  2**2
                  CONTENTS, ALLOC, LOAD, READONLY, DATA
  4 .rwdata       00001c20  0206b368  0206cf88  0002c368  2**2
                  CONTENTS, ALLOC, LOAD, DATA, SMALL_DATA
  5 .bss          000001a0  0206eba8  0206eba8  0002eba8  2**2
                  ALLOC, SMALL_DATA
  6 .cfi_flash    00000000  01800000  01800000  0002df88  2**0
                  CONTENTS
  7 .onchip_memory2 00000000  0206ed48  0206ed48  0002df88  2**0
                  CONTENTS
  8 .comment      00000023  00000000  00000000  0002df88  2**0
                  CONTENTS, READONLY
  9 .debug_aranges 00001570  00000000  00000000  0002dfb0  2**3
                  CONTENTS, READONLY, DEBUGGING
 10 .debug_info   000352a2  00000000  00000000  0002f520  2**0
                  CONTENTS, READONLY, DEBUGGING
 11 .debug_abbrev 0000d65d  00000000  00000000  000647c2  2**0
                  CONTENTS, READONLY, DEBUGGING
 12 .debug_line   00012b81  00000000  00000000  00071e1f  2**0
                  CONTENTS, READONLY, DEBUGGING
 13 .debug_frame  00003e30  00000000  00000000  000849a0  2**2
                  CONTENTS, READONLY, DEBUGGING
 14 .debug_str    00005db3  00000000  00000000  000887d0  2**0
                  CONTENTS, READONLY, DEBUGGING
 15 .debug_loc    000227e8  00000000  00000000  0008e583  2**0
                  CONTENTS, READONLY, DEBUGGING
 16 .debug_alt_sim_info 00000060  00000000  00000000  000b0d6c  2**2
                  CONTENTS, READONLY, DEBUGGING
 17 .debug_ranges 00002308  00000000  00000000  000b0dd0  2**3
                  CONTENTS, READONLY, DEBUGGING
 18 .thread_model 00000003  00000000  00000000  000b7eca  2**0
                  CONTENTS, READONLY
 19 .cpu          00000003  00000000  00000000  000b7ecd  2**0
                  CONTENTS, READONLY
 20 .qsys         00000001  00000000  00000000  000b7ed0  2**0
                  CONTENTS, READONLY
 21 .simulation_enabled 00000001  00000000  00000000  000b7ed1  2**0
                  CONTENTS, READONLY
 22 .stderr_dev   00000009  00000000  00000000  000b7ed2  2**0
                  CONTENTS, READONLY
 23 .stdin_dev    00000009  00000000  00000000  000b7edb  2**0
                  CONTENTS, READONLY
 24 .stdout_dev   00000009  00000000  00000000  000b7ee4  2**0
                  CONTENTS, READONLY
 25 .sopc_system_name 00000014  00000000  00000000  000b7eed  2**0
                  CONTENTS, READONLY
 26 .quartus_project_dir 0000002a  00000000  00000000  000b7f01  2**0
                  CONTENTS, READONLY
 27 .jdi          000052b0  00000000  00000000  000b7f2b  2**0
                  CONTENTS, READONLY
 28 .sopcinfo     000c5cce  00000000  00000000  000bd1db  2**0
                  CONTENTS, READONLY
SYMBOL TABLE:
02040000 l    d  .entry	00000000 .entry
02040020 l    d  .exceptions	00000000 .exceptions
02040244 l    d  .text	00000000 .text
02062b4c l    d  .rodata	00000000 .rodata
0206b368 l    d  .rwdata	00000000 .rwdata
0206eba8 l    d  .bss	00000000 .bss
01800000 l    d  .cfi_flash	00000000 .cfi_flash
0206ed48 l    d  .onchip_memory2	00000000 .onchip_memory2
00000000 l    d  .comment	00000000 .comment
00000000 l    d  .debug_aranges	00000000 .debug_aranges
00000000 l    d  .debug_info	00000000 .debug_info
00000000 l    d  .debug_abbrev	00000000 .debug_abbrev
00000000 l    d  .debug_line	00000000 .debug_line
00000000 l    d  .debug_frame	00000000 .debug_frame
00000000 l    d  .debug_str	00000000 .debug_str
00000000 l    d  .debug_loc	00000000 .debug_loc
00000000 l    d  .debug_alt_sim_info	00000000 .debug_alt_sim_info
00000000 l    d  .debug_ranges	00000000 .debug_ranges
00000000 l    df *ABS*	00000000 ../classifier_ha_bsp//obj/HAL/src/crt0.o
0204028c l       .text	00000000 alt_after_alt_main
00000000 l    df *ABS*	00000000 alt_irq_handler.c
00000000 l    df *ABS*	00000000 alt_instruction_exception_entry.c
00000000 l    df *ABS*	00000000 hello_world.c
020403a8 l     F .text	00000078 alt_avalon_timer_sc_irq
02062f24 l     O .rodata	00007aa8 network.4805
00000000 l    df *ABS*	00000000 neural_network.c
00000000 l    df *ABS*	00000000 FatFileSystem.c
00000000 l    df *ABS*	00000000 FatInternal.c
00000000 l    df *ABS*	00000000 debug.c
00000000 l    df *ABS*	00000000 crc16.c
0206a9fc l     O .rodata	00000200 crc16tab
00000000 l    df *ABS*	00000000 crc7.c
0206abfc l     O .rodata	00000100 crc7_syndrome_table
00000000 l    df *ABS*	00000000 sd_hal.c
00000000 l    df *ABS*	00000000 sd_lib.c
0206ebe8 l     O .bss	00000038 gSdInfo
00000000 l    df *ABS*	00000000 sd_protocol.c
00000000 l    df *ABS*	00000000 w_exp.c
00000000 l    df *ABS*	00000000 w_pow.c
00000000 l    df *ABS*	00000000 e_exp.c
0206ad24 l     O .rodata	00000010 halF
0206ad14 l     O .rodata	00000010 ln2HI
0206ad04 l     O .rodata	00000010 ln2LO
00000000 l    df *ABS*	00000000 e_pow.c
00000000 l    df *ABS*	00000000 e_sqrt.c
00000000 l    df *ABS*	00000000 s_fabs.c
00000000 l    df *ABS*	00000000 s_finite.c
00000000 l    df *ABS*	00000000 s_fpclassify.c
00000000 l    df *ABS*	00000000 s_lib_ver.c
00000000 l    df *ABS*	00000000 s_matherr.c
00000000 l    df *ABS*	00000000 s_nan.c
00000000 l    df *ABS*	00000000 s_rint.c
0206ad34 l     O .rodata	00000010 TWO52
00000000 l    df *ABS*	00000000 s_scalbn.c
00000000 l    df *ABS*	00000000 s_copysign.c
00000000 l    df *ABS*	00000000 lib2-divmod.c
00000000 l    df *ABS*	00000000 addsf3.c
00000000 l    df *ABS*	00000000 divsf3.c
00000000 l    df *ABS*	00000000 gesf2.c
00000000 l    df *ABS*	00000000 mulsf3.c
00000000 l    df *ABS*	00000000 subsf3.c
00000000 l    df *ABS*	00000000 floatsisf.c
00000000 l    df *ABS*	00000000 floatunsisf.c
00000000 l    df *ABS*	00000000 adddf3.c
00000000 l    df *ABS*	00000000 divdf3.c
00000000 l    df *ABS*	00000000 eqdf2.c
00000000 l    df *ABS*	00000000 gedf2.c
00000000 l    df *ABS*	00000000 ledf2.c
00000000 l    df *ABS*	00000000 muldf3.c
00000000 l    df *ABS*	00000000 subdf3.c
00000000 l    df *ABS*	00000000 fixdfsi.c
00000000 l    df *ABS*	00000000 floatsidf.c
00000000 l    df *ABS*	00000000 extendsfdf2.c
00000000 l    df *ABS*	00000000 truncdfsf2.c
00000000 l    df *ABS*	00000000 libgcc2.c
00000000 l    df *ABS*	00000000 libgcc2.c
00000000 l    df *ABS*	00000000 atoi.c
00000000 l    df *ABS*	00000000 errno.c
00000000 l    df *ABS*	00000000 impure.c
0206b368 l     O .rwdata	00000424 impure_data
00000000 l    df *ABS*	00000000 malloc.c
00000000 l    df *ABS*	00000000 mallocr.c
00000000 l    df *ABS*	00000000 memcpy.c
00000000 l    df *ABS*	00000000 memset.c
00000000 l    df *ABS*	00000000 printf.c
00000000 l    df *ABS*	00000000 putchar.c
00000000 l    df *ABS*	00000000 puts.c
00000000 l    df *ABS*	00000000 sbrkr.c
00000000 l    df *ABS*	00000000 snprintf.c
00000000 l    df *ABS*	00000000 sprintf.c
00000000 l    df *ABS*	00000000 strcasecmp.c
00000000 l    df *ABS*	00000000 strlen.c
00000000 l    df *ABS*	00000000 strtol.c
00000000 l    df *ABS*	00000000 vfprintf.c
0206ae8e l     O .rodata	00000010 zeroes.4389
0206ae9e l     O .rodata	00000010 blanks.4388
00000000 l    df *ABS*	00000000 vfprintf.c
0206aeae l     O .rodata	00000010 zeroes.4404
02054f8c l     F .text	000000bc __sbprintf
0206aebe l     O .rodata	00000010 blanks.4403
00000000 l    df *ABS*	00000000 vsnprintf.c
00000000 l    df *ABS*	00000000 wsetup.c
00000000 l    df *ABS*	00000000 ctype_.c
0206afcf l     O .rodata	00000180 _ctype_b
00000000 l    df *ABS*	00000000 dtoa.c
020552c0 l     F .text	00000200 quorem
00000000 l    df *ABS*	00000000 fflush.c
00000000 l    df *ABS*	00000000 findfp.c
02056df0 l     F .text	00000008 __fp_unlock
02056e04 l     F .text	0000019c __sinit.part.1
02056fa0 l     F .text	00000008 __fp_lock
00000000 l    df *ABS*	00000000 mallocr.c
00000000 l    df *ABS*	00000000 fvwrite.c
00000000 l    df *ABS*	00000000 fwalk.c
00000000 l    df *ABS*	00000000 int_errno.c
00000000 l    df *ABS*	00000000 locale.c
0206bbb4 l     O .rwdata	00000020 lc_ctype_charset
0206bb94 l     O .rwdata	00000020 lc_message_charset
0206bbd4 l     O .rwdata	00000038 lconv
00000000 l    df *ABS*	00000000 makebuf.c
00000000 l    df *ABS*	00000000 memchr.c
00000000 l    df *ABS*	00000000 memmove.c
00000000 l    df *ABS*	00000000 mprec.c
0206b16c l     O .rodata	0000000c p05.2768
00000000 l    df *ABS*	00000000 putc.c
00000000 l    df *ABS*	00000000 mallocr.c
00000000 l    df *ABS*	00000000 stdio.c
00000000 l    df *ABS*	00000000 strcmp.c
00000000 l    df *ABS*	00000000 vfprintf.c
0206b2a0 l     O .rodata	00000010 blanks.4332
0206b290 l     O .rodata	00000010 zeroes.4333
00000000 l    df *ABS*	00000000 vfprintf.c
0205adcc l     F .text	000000fc __sprint_r.part.0
0206b2c0 l     O .rodata	00000010 blanks.4348
0206b2b0 l     O .rodata	00000010 zeroes.4349
0205c358 l     F .text	000000bc __sbprintf
00000000 l    df *ABS*	00000000 wbuf.c
00000000 l    df *ABS*	00000000 writer.c
00000000 l    df *ABS*	00000000 closer.c
00000000 l    df *ABS*	00000000 mallocr.c
00000000 l    df *ABS*	00000000 fclose.c
00000000 l    df *ABS*	00000000 fputwc.c
00000000 l    df *ABS*	00000000 fstatr.c
00000000 l    df *ABS*	00000000 isattyr.c
00000000 l    df *ABS*	00000000 lseekr.c
00000000 l    df *ABS*	00000000 readr.c
00000000 l    df *ABS*	00000000 wcrtomb.c
00000000 l    df *ABS*	00000000 wctomb_r.c
00000000 l    df *ABS*	00000000 libgcc2.c
00000000 l    df *ABS*	00000000 libgcc2.c
00000000 l    df *ABS*	00000000 floatunsidf.c
00000000 l    df *ABS*	00000000 alt_close.c
0205d8a0 l     F .text	0000003c alt_get_errno
00000000 l    df *ABS*	00000000 alt_dev.c
0205d9ac l     F .text	0000002c alt_dev_null_write
00000000 l    df *ABS*	00000000 alt_errno.c
00000000 l    df *ABS*	00000000 alt_fstat.c
0205d9d8 l     F .text	0000003c alt_get_errno
00000000 l    df *ABS*	00000000 alt_iic.c
00000000 l    df *ABS*	00000000 alt_iic_isr_register.c
00000000 l    df *ABS*	00000000 alt_irq_vars.c
00000000 l    df *ABS*	00000000 alt_isatty.c
0205dd64 l     F .text	0000003c alt_get_errno
00000000 l    df *ABS*	00000000 alt_load.c
0205de44 l     F .text	00000068 alt_load_section
00000000 l    df *ABS*	00000000 alt_lseek.c
0205df30 l     F .text	0000003c alt_get_errno
00000000 l    df *ABS*	00000000 alt_main.c
00000000 l    df *ABS*	00000000 alt_malloc_lock.c
00000000 l    df *ABS*	00000000 alt_read.c
0205e104 l     F .text	0000003c alt_get_errno
00000000 l    df *ABS*	00000000 alt_release_fd.c
00000000 l    df *ABS*	00000000 alt_sbrk.c
0206cf74 l     O .rwdata	00000004 heap_end
00000000 l    df *ABS*	00000000 alt_tick.c
00000000 l    df *ABS*	00000000 alt_usleep.c
00000000 l    df *ABS*	00000000 alt_write.c
0205e524 l     F .text	0000003c alt_get_errno
00000000 l    df *ABS*	00000000 alt_sys_init.c
0205e658 l     F .text	00000034 alt_dev_reg
0206bdb4 l     O .rwdata	000000dc cfi_flash
0206be90 l     O .rwdata	00001060 jtag_uart
0206cef0 l     O .rwdata	00000048 video_character_buffer_with_dma_0
00000000 l    df *ABS*	00000000 altera_avalon_cfi_flash.c
0205e7e0 l     F .text	00000034 alt_flash_device_register
00000000 l    df *ABS*	00000000 altera_avalon_cfi_flash_table.c
0205f630 l     F .text	00000080 alt_read_16bit_query_entry
00000000 l    df *ABS*	00000000 altera_avalon_jtag_uart_fd.c
00000000 l    df *ABS*	00000000 altera_avalon_jtag_uart_init.c
020606e4 l     F .text	0000020c altera_avalon_jtag_uart_irq
020608f0 l     F .text	000000a0 altera_avalon_jtag_uart_timeout
00000000 l    df *ABS*	00000000 altera_avalon_jtag_uart_ioctl.c
00000000 l    df *ABS*	00000000 altera_avalon_jtag_uart_read.c
00000000 l    df *ABS*	00000000 altera_avalon_jtag_uart_write.c
00000000 l    df *ABS*	00000000 altera_up_avalon_video_character_buffer_with_dma.c
00000000 l    df *ABS*	00000000 alt_alarm_start.c
00000000 l    df *ABS*	00000000 alt_busy_sleep.c
00000000 l    df *ABS*	00000000 alt_dcache_flush.c
00000000 l    df *ABS*	00000000 alt_dcache_flush_all.c
00000000 l    df *ABS*	00000000 alt_dev_llist_insert.c
0206154c l     F .text	0000003c alt_get_errno
00000000 l    df *ABS*	00000000 alt_do_ctors.c
00000000 l    df *ABS*	00000000 alt_do_dtors.c
00000000 l    df *ABS*	00000000 alt_find_dev.c
00000000 l    df *ABS*	00000000 alt_flash_dev.c
00000000 l    df *ABS*	00000000 alt_icache_flush_all.c
00000000 l    df *ABS*	00000000 alt_io_redirect.c
02061908 l     F .text	000000c4 alt_open_fd
00000000 l    df *ABS*	00000000 alt_open.c
02061a48 l     F .text	0000003c alt_get_errno
02061a84 l     F .text	000000c4 alt_file_locked
00000000 l    df *ABS*	00000000 altera_nios2_gen2_irq.c
00000000 l    df *ABS*	00000000 altera_avalon_cfi_flash_amd.c
02062054 l     F .text	000000cc alt_write_word_amd
02061f38 l     F .text	0000011c alt_wait_for_command_to_complete_amd
00000000 l    df *ABS*	00000000 altera_avalon_cfi_flash_intel.c
0206232c l     F .text	0000017c alt_unlock_block_intel
020624a8 l     F .text	000000d4 alt_write_word_intel
00000000 l    df *ABS*	00000000 alt_find_file.c
00000000 l    df *ABS*	00000000 alt_get_fd.c
00000000 l    df *ABS*	00000000 alt_icache_flush.c
00000000 l    df *ABS*	00000000 atexit.c
00000000 l    df *ABS*	00000000 exit.c
00000000 l    df *ABS*	00000000 memcmp.c
00000000 l    df *ABS*	00000000 __atexit.c
00000000 l    df *ABS*	00000000 __call_atexit.c
00000000 l    df *ABS*	00000000 alt_exit.c
0206ebe4 g     O .bss	00000004 alt_instruction_exception_handler
02050488 g     F .text	00000018 putchar
02058f64 g     F .text	00000074 _mprec_log10
02059050 g     F .text	0000008c __any_on
0205ca4c g     F .text	00000054 _isatty_r
0206b178 g     O .rodata	00000028 __mprec_tinytens
0205e040 g     F .text	0000007c alt_main
020504a0 g     F .text	000000c0 _puts_r
0205f0f4 g     F .text	00000040 alt_read_query_entry_32bit
02044da8 g     F .text	0000006c Fat_FileBrowseBegin
0206ec48 g     O .bss	00000100 alt_irq
0204b608 g     F .text	00000014 fabs
0205caa0 g     F .text	00000060 _lseek_r
0205e8a4 g     F .text	000002a8 alt_flash_cfi_write
0206cf88 g       *ABS*	00000000 __flash_rwdata_start
0204e264 g     F .text	00000088 .hidden __eqdf2
02048074 g     F .text	00000080 SDLIB_WriteBlock512
0206ed48 g       *ABS*	00000000 __alt_heap_start
02050444 g     F .text	0000003c printf
0205cb60 g     F .text	0000009c _wcrtomb_r
02049504 g     F .text	000001a8 SD_CMD24
02059880 g     F .text	0000005c __sseek
02057140 g     F .text	00000010 __sinit
0205c414 g     F .text	00000140 __swbuf_r
020610b0 g     F .text	000000fc alt_up_char_buffer_string
02057c08 g     F .text	0000007c _setlocale_r
02056fa8 g     F .text	00000068 __sfmoreglue
0205e0e0 g     F .text	00000024 __malloc_unlock
02044e14 g     F .text	00000428 Fat_FileBrowseNext
0204c0e0 g     F .text	00000440 .hidden __divsf3
020472e8 g     F .text	0000002c SDHAL_IsSupport4Bits
02060fe4 g     F .text	000000cc alt_up_char_buffer_draw
0206ebac g     O .bss	00000004 altera_avalon_timer_ts_freq
02047228 g     F .text	00000050 crc7_byte
020465d8 g     F .text	000000ac fatIsValidDir
02057f84 g     F .text	0000015c memmove
02044944 g     F .text	00000080 draw_menu3
02057128 g     F .text	00000018 _cleanup
020506a0 g     F .text	000000e4 snprintf
020580e0 g     F .text	000000a8 _Balloc
0204e2ec g     F .text	000000dc .hidden __gtdf2
02061c9c g     F .text	00000024 altera_nios2_gen2_irq_init
0204f960 g     F .text	00000010 __errno
020449c4 g     F .text	000002e4 neural_network_hypothesis
0205f28c g     F .text	00000050 alt_write_flash_command_32bit_device_16bit_mode
02040000 g     F .entry	0000001c __reset
02047454 g     F .text	000001ec SDHAL_GetResponse
02040020 g       *ABS*	00000000 __flash_exceptions_start
0205c9f0 g     F .text	0000005c _fstat_r
0205ed98 g     F .text	000002e0 alt_flash_program_block
0206ebbc g     O .bss	00000004 errno
020597fc g     F .text	00000008 __seofread
02059b90 g     F .text	0000123c ___svfiprintf_internal_r
0204600c g     F .text	00000168 fatNextCluster
0206ebd4 g     O .bss	00000004 alt_argv
02074f38 g       *ABS*	00000000 _gp
0205e4f4 g     F .text	00000030 usleep
0204c9d8 g     F .text	000004e4 .hidden __subsf3
0206bc34 g     O .rwdata	00000180 alt_fd_list
02050480 g     F .text	00000008 _putchar_r
020616ec g     F .text	00000090 alt_find_dev
020501a4 g     F .text	00000148 memcpy
020611ac g     F .text	0000005c alt_up_char_buffer_clear
02056df8 g     F .text	0000000c _cleanup_r
0204f550 g     F .text	000000dc .hidden __floatsidf
020619cc g     F .text	0000007c alt_io_redirect
0204e3c8 g     F .text	000000f4 .hidden __ltdf2
02062b4c g       *ABS*	00000000 __DTOR_END__
020454f0 g     F .text	000000b0 Fat_FileExist
02050560 g     F .text	00000014 puts
0206186c g     F .text	0000009c alt_exception_cause_generated_bad_addr
0204b638 g     F .text	00000074 __fpclassifyd
0204867c g     F .text	00000198 SD_CMD2
02058ec0 g     F .text	000000a4 __ratio
0205c33c g     F .text	0000001c __vfiprintf_internal
02060ae8 g     F .text	0000021c altera_avalon_jtag_uart_read
0204f970 g     F .text	00000014 malloc
02050414 g     F .text	00000030 _printf_r
0204bb5c g     F .text	00000064 .hidden __udivsi3
0205dda0 g     F .text	000000a4 isatty
0206b1c8 g     O .rodata	000000c8 __mprec_tens
020491dc g     F .text	00000180 SD_ACMD42
02057c84 g     F .text	0000000c __locale_charset
02055138 g     F .text	00000034 vsnprintf
02062728 g     F .text	00000090 alt_icache_flush
0206ebb8 g     O .bss	00000004 __malloc_top_pad
02042338 g     F .text	00000c2c fast_version
0206cf50 g     O .rwdata	00000004 __mb_cur_max
02057cb4 g     F .text	0000000c _localeconv_r
02048d30 g     F .text	00000180 SD_CMD7
020584ec g     F .text	0000003c __i2b
020575c4 g     F .text	000004bc __sfvwrite_r
02050574 g     F .text	00000054 _sbrk_r
02062120 g     F .text	00000080 alt_program_intel
02048eb0 g     F .text	000001a0 SD_CMD16
0204972c g     F .text	00000074 ArrayToU32
0205cb00 g     F .text	00000060 _read_r
0206148c g     F .text	00000078 alt_dcache_flush
0206cf68 g     O .rwdata	00000004 alt_max_fd
0205f078 g     F .text	0000003c alt_read_query_entry_8bit
02046b4c g     F .text	00000314 fatMount
0205c6e4 g     F .text	000000f0 _fclose_r
020621a0 g     F .text	0000018c alt_erase_block_intel
02056dc0 g     F .text	00000030 fflush
0206ebb4 g     O .bss	00000004 __malloc_max_sbrked_mem
0204f62c g     F .text	00000110 .hidden __extendsfdf2
0204d0d0 g     F .text	000008ac .hidden __adddf3
02046684 g     F .text	00000048 fatIsUnusedDir
02058c68 g     F .text	0000010c __b2d
0205d2c0 g     F .text	00000538 .hidden __umoddi3
0205df6c g     F .text	000000d4 lseek
0206cf38 g     O .rwdata	00000004 __fdlib_version
0206cf3c g     O .rwdata	00000004 _global_impure_ptr
02059244 g     F .text	00000564 _realloc_r
0206ed48 g       *ABS*	00000000 __bss_end
0205dc74 g     F .text	000000f0 alt_iic_isr_register
02049df4 g     F .text	000004e8 __ieee754_exp
0205e3ec g     F .text	00000108 alt_tick
0205cd48 g     F .text	00000578 .hidden __udivdi3
0205c94c g     F .text	00000024 _fputwc_r
0206b1a0 g     O .rodata	00000028 __mprec_bigtens
020582d0 g     F .text	00000104 __s2b
0205d7f8 g     F .text	000000a8 .hidden __floatunsidf
020589a8 g     F .text	00000060 __mcmp
02046e60 g     F .text	0000003c SD_ReadBlock512
02057160 g     F .text	00000018 __fp_lock_all
0205dc28 g     F .text	0000004c alt_ic_irq_enabled
020455a0 g     F .text	0000012c Fat_FileOpen
0205e350 g     F .text	0000009c alt_alarm_stop
02050b84 g     F .text	0000001c strtol
0206ebcc g     O .bss	00000004 alt_irq_active
020462ec g     F .text	000001e8 fatDelClusterList
020400fc g     F .exceptions	000000d4 alt_irq_handler
0206bc0c g     O .rwdata	00000028 alt_dev_null
02047370 g     F .text	000000e4 SDHAL_SendCmd
0204430c g     F .text	00000200 readimage
0204b6c0 g     F .text	000001ec rint
0205f594 g     F .text	0000009c alt_set_flash_algorithm_func
02061504 g     F .text	00000048 alt_dcache_flush_all
020583d4 g     F .text	00000068 __hi0bits
02047640 g     F .text	00000494 SDHAL_ReadData
0204f4d0 g     F .text	00000080 .hidden __fixdfsi
0205f134 g     F .text	00000044 alt_write_flash_command_8bit_device_8bit_mode
0206cf88 g       *ABS*	00000000 __ram_rwdata_end
0206cf60 g     O .rwdata	00000008 alt_dev_list
02044ca8 g     F .text	00000044 Fat_Mount
0205e560 g     F .text	000000f8 write
020590dc g     F .text	000000a0 _putc_r
02040388 g     F .text	00000020 alt_timestamp_freq
0204c520 g     F .text	000000bc .hidden __gtsf2
0206b368 g       *ABS*	00000000 __ram_rodata_end
0205da14 g     F .text	000000b0 fstat
0204e3c8 g     F .text	000000f4 .hidden __ledf2
02047000 g     F .text	0000006c myprintf
020603e8 g     F .text	000000d8 alt_check_primary_table
02044814 g     F .text	00000130 draw_menu2
02058720 g     F .text	00000140 __pow5mult
0205aee0 g     F .text	0000145c ___vfiprintf_internal_r
0206ebc8 g     O .bss	00000004 __nlocale_changed
0204bbc0 g     F .text	00000058 .hidden __umodsi3
0205ebd8 g     F .text	00000064 alt_flash_cfi_read
0205f32c g     F .text	00000038 alt_write_native_8bit
020440f4 g     F .text	00000218 displayimage
0206ed48 g       *ABS*	00000000 end
0205f178 g     F .text	00000078 alt_write_flash_command_16bit_device_8bit_mode
02060f28 g     F .text	00000080 alt_up_char_buffer_init
0204f954 g     F .text	0000000c _atoi_r
0205f6b0 g     F .text	000005c8 alt_read_cfi_table
02060624 g     F .text	000000c0 altera_avalon_jtag_uart_init
020401d0 g     F .exceptions	00000074 alt_instruction_exception_entry
02062b4c g       *ABS*	00000000 __CTOR_LIST__
02080000 g       *ABS*	00000000 __alt_stack_pointer
02040420 g     F .text	0000007c alt_avalon_timer_sc_init
0204f8e4 g     F .text	00000064 .hidden __clzsi2
020505c8 g     F .text	000000d8 _snprintf_r
02060d04 g     F .text	00000224 altera_avalon_jtag_uart_write
02045c80 g     F .text	00000048 Fat_FileClose
0205e814 g     F .text	00000090 alt_flash_cfi_init
02057150 g     F .text	00000004 __sfp_lock_acquire
0204523c g     F .text	0000006c Fat_FileCount
02057ea0 g     F .text	000000e4 memchr
02052d78 g     F .text	000021f8 ___vfprintf_internal_r
02050784 g     F .text	00000058 _sprintf_r
020572b4 g     F .text	00000310 _free_r
02057c90 g     F .text	00000010 __locale_mb_cur_max
02062998 g     F .text	00000180 __call_exitprocs
020446e0 g     F .text	00000134 draw_menu
0206ebc4 g     O .bss	00000004 __mlocale_changed
0206cf44 g     O .rwdata	00000004 __malloc_sbrk_base
02040244 g     F .text	0000004c _start
0206ebdc g     O .bss	00000004 _alt_tick_rate
02058860 g     F .text	00000148 __lshift
0206ebe0 g     O .bss	00000004 _alt_nticks
02048148 g     F .text	0000008c SD_CMD0
0205e140 g     F .text	000000fc read
0205e6c4 g     F .text	0000011c alt_sys_init
0204cebc g     F .text	00000124 .hidden __floatsisf
020599c0 g     F .text	000001d0 __ssprint_r
02062880 g     F .text	00000118 __register_exitproc
02047c7c g     F .text	0000005c SDHAL_DummyClock
020456cc g     F .text	00000044 Fat_FileSize
0204464c g     F .text	00000094 file_exists
0205f0b4 g     F .text	00000040 alt_read_query_entry_16bit
02047184 g     F .text	000000a4 crc16
02058528 g     F .text	000001f8 __multiply
0204a2dc g     F .text	000010a4 __ieee754_pow
020480f4 g     F .text	0000002c SD_Init
02060990 g     F .text	00000068 altera_avalon_jtag_uart_close
02049930 g     F .text	000004c4 pow
0206b368 g       *ABS*	00000000 __ram_rwdata_start
02062b4c g       *ABS*	00000000 __ram_rodata_start
0206ec20 g     O .bss	00000028 __malloc_current_mallinfo
0205f3d0 g     F .text	000001c4 alt_set_flash_width_func
02058d74 g     F .text	0000014c __d2b
02050848 g     F .text	0000006c strcasecmp
020604c0 g     F .text	00000060 altera_avalon_jtag_uart_read_fd
02062684 g     F .text	000000a4 alt_get_fd
02061334 g     F .text	00000158 alt_busy_sleep
0204450c g     F .text	00000140 listfiles
0205c5cc g     F .text	00000054 _close_r
0204070c g     F .text	00000d58 step_version
02061d28 g     F .text	00000210 alt_erase_block_amd
02045710 g     F .text	00000470 Fat_FileRead
02062804 g     F .text	0000007c memcmp
02060580 g     F .text	00000050 altera_avalon_jtag_uart_close_fd
0206ed48 g       *ABS*	00000000 __alt_stack_base
020605d0 g     F .text	00000054 altera_avalon_jtag_uart_ioctl_fd
02046a3c g     F .text	00000110 fatFindUnusedDirectory
02047314 g     F .text	0000005c SDHAL_Init
0205516c g     F .text	00000154 __swsetup_r
0205fc78 g     F .text	00000770 alt_read_cfi_width
0204d97c g     F .text	000008e8 .hidden __divdf3
02057010 g     F .text	00000118 __sfp
02058fd8 g     F .text	00000078 __copybits
0206b78c g     O .rwdata	00000408 __malloc_av_
0205715c g     F .text	00000004 __sinit_lock_release
02055048 g     F .text	000000f0 _vsnprintf_r
0204e4bc g     F .text	00000718 .hidden __muldf3
020597a8 g     F .text	00000054 __sread
02045cc8 g     F .text	000001c8 Fat_SpeedTest
0206257c g     F .text	00000108 alt_find_file
02061588 g     F .text	000000a4 alt_dev_llist_insert
0205e0bc g     F .text	00000024 __malloc_lock
0205e2a0 g     F .text	000000b0 sbrk
02050ba0 g     F .text	000021d8 ___svfprintf_internal_r
02056d64 g     F .text	0000005c _fflush_r
0205c620 g     F .text	000000c4 _calloc_r
0206cf80 g     O .rwdata	00000008 alt_flash_dev_list
0205f240 g     F .text	0000004c alt_write_flash_command_16bit_device_16bit_mode
02046990 g     F .text	000000ac fatFindDirectory
0206eba8 g       *ABS*	00000000 __bss_start
020502ec g     F .text	00000128 memset
02043cb8 g     F .text	0000043c main
02046900 g     F .text	00000090 fatReadSecter
0206ebd8 g     O .bss	00000004 alt_envp
0206ebb0 g     O .bss	00000004 __malloc_max_total_mem
0204706c g     F .text	00000088 myprintf_hexarray
02060fa8 g     F .text	0000003c alt_up_char_buffer_open_dev
02060520 g     F .text	00000060 altera_avalon_jtag_uart_write_fd
0205c554 g     F .text	00000018 __swbuf
020598dc g     F .text	00000008 __sclose
0204b6ac g     F .text	00000008 matherr
020466cc g     F .text	000001ac fatDump
02080000 g       *ABS*	00000000 __alt_heap_limit
0205c7d4 g     F .text	00000014 fclose
0205094c g     F .text	00000238 _strtol_r
0204f73c g     F .text	000001a8 .hidden __truncdfsf2
02040290 g     F .text	00000078 alt_timestamp_start
020554c0 g     F .text	00001688 _dtoa_r
0204f998 g     F .text	0000080c _malloc_r
0205ccbc g     F .text	00000030 __ascii_wctomb
020496ec g     F .text	00000040 SD_WriteData
0206cf6c g     O .rwdata	00000004 alt_errno
0205f2dc g     F .text	00000050 alt_write_flash_command_32bit_device_32bit_mode
02057a80 g     F .text	000000c4 _fwalk
0205ec3c g     F .text	0000015c alt_write_value_to_flash
020497a0 g     F .text	00000190 exp
020464d4 g     F .text	00000060 fatDumpDate
0205f364 g     F .text	00000038 alt_write_native_16bit
02047278 g     F .text	00000070 crc7
0205917c g     F .text	000000c8 putc
02045b80 g     F .text	00000100 Fat_FileSeek
0204ba64 g     F .text	00000084 .hidden __divsi3
02049050 g     F .text	0000018c SD_ACMD6
01800000 g       *ABS*	00000000 __alt_mem_cfi_flash
02057190 g     F .text	00000124 _malloc_trim_r
02062b4c g       *ABS*	00000000 __CTOR_END__
0204c5dc g     F .text	000003fc .hidden __mulsf3
0204b61c g     F .text	0000001c finite
020598e4 g     F .text	000000dc strcmp
02046e9c g     F .text	0000003c SD_WriteBlock512
02062b4c g       *ABS*	00000000 __flash_rodata_start
02062b4c g       *ABS*	00000000 __DTOR_LIST__
02046878 g     F .text	00000088 fatArray2Value
02048120 g     F .text	00000028 SD_IsSupport4Bits
0204ba48 g     F .text	0000001c copysign
0204e264 g     F .text	00000088 .hidden __nedf2
02045f40 g     F .text	000000cc fat32ClusterType
0205e68c g     F .text	00000038 alt_irq_init
0205e23c g     F .text	00000064 alt_release_fd
020507dc g     F .text	0000006c sprintf
0206ad44 g     O .rodata	00000100 .hidden __clz_tab
02046fcc g     F .text	00000034 debug_output
0206ebc0 g     O .bss	00000004 _PathLocale
020484e0 g     F .text	0000019c SD_ACMD41
0204049c g     F .text	00000270 ConvertNumberToFloat
020627b8 g     F .text	00000014 atexit
0204c520 g     F .text	000000bc .hidden __gesf2
0205c56c g     F .text	00000060 _write_r
020481d4 g     F .text	0000018c SD_CMD8
0204533c g     F .text	000001b4 fatComposeShortFilename
02057cc0 g     F .text	00000018 setlocale
0206cf40 g     O .rwdata	00000004 _impure_ptr
0206ebd0 g     O .bss	00000004 alt_argc
02056b48 g     F .text	0000021c __sflush_r
0204b8ac g     F .text	0000019c scalbn
0206eba8 g     O .bss	00000004 altera_avalon_timer_ts_base
0206168c g     F .text	00000060 _do_dtors
02057cac g     F .text	00000008 __locale_cjk_lang
02044d3c g     F .text	0000006c Fat_Type
020470f4 g     F .text	00000090 myprintf_dwordarray
02040020 g       .exceptions	00000000 alt_irq_entry
02058c04 g     F .text	00000064 __ulp
02057178 g     F .text	00000018 __fp_unlock_all
02045e90 g     F .text	000000b0 fat16ClusterType
0206cf58 g     O .rwdata	00000008 alt_fs_list
02048360 g     F .text	00000180 SD_CMD55
0205f1f0 g     F .text	00000050 alt_write_flash_command_32bit_device_8bit_mode
0204b6b4 g     F .text	0000000c nan
02048b70 g     F .text	000001c0 SD_CMD10
02041464 g     F .text	00000ed4 fast_version1
02040020 g       *ABS*	00000000 __ram_exceptions_start
02057cd8 g     F .text	0000000c localeconv
02040308 g     F .text	00000080 alt_timestamp
0204b380 g     F .text	00000288 __ieee754_sqrt
02040000 g       *ABS*	00000000 __alt_mem_onchip_memory2
020452a8 g     F .text	00000094 fatSameLongFilename
0205dac4 g     F .text	00000050 alt_ic_isr_register
0206cf88 g       *ABS*	00000000 _edata
02046534 g     F .text	00000060 fatDumpTime
0206ed48 g       *ABS*	00000000 _end
0206177c g     F .text	00000068 alt_flash_open_dev
020489b0 g     F .text	000001c0 SD_CMD9
0205c7e8 g     F .text	00000164 __fputwc
02040244 g       *ABS*	00000000 __ram_exceptions_end
020609f8 g     F .text	000000f0 altera_avalon_jtag_uart_ioctl
0205db9c g     F .text	0000008c alt_ic_irq_disable
02059804 g     F .text	0000007c __swrite
0206cf48 g     O .rwdata	00000004 __malloc_trim_threshold
02057ca0 g     F .text	0000000c __locale_msgcharset
020627cc g     F .text	00000038 exit
02046ed8 g     F .text	000000f4 fatMountSdcard
02057b44 g     F .text	000000c4 _fwalk_reent
0204cfe0 g     F .text	000000f0 .hidden __floatunsisf
02058a08 g     F .text	000001fc __mdiff
020617e4 g     F .text	00000054 alt_flash_close_dev
0204bae8 g     F .text	00000074 .hidden __modsi3
0206cf4c g     O .rwdata	00000004 __ctype_ptr__
02080000 g       *ABS*	00000000 __alt_data_end
02040020 g     F .exceptions	00000000 alt_exception
02057154 g     F .text	00000004 __sfp_lock_release
0204f948 g     F .text	0000000c atoi
02047cd8 g     F .text	0000031c SDLIB_Init
0206aece g     O .rodata	00000101 _ctype_
0204935c g     F .text	000001a8 SD_CMD17
02062b18 g     F .text	00000034 _exit
02061208 g     F .text	0000012c alt_alarm_start
02057ce4 g     F .text	000001bc __smakebuf_r
0205f39c g     F .text	00000034 alt_write_native_32bit
020508b4 g     F .text	00000098 strlen
02061b48 g     F .text	00000154 open
0204e2ec g     F .text	000000dc .hidden __gedf2
0205eb4c g     F .text	0000008c alt_flash_cfi_get_info
0206cf54 g     O .rwdata	00000004 __wctomb
0205aec8 g     F .text	00000018 __sprint_r
02061838 g     F .text	00000034 alt_icache_flush_all
0206cf70 g     O .rwdata	00000004 alt_priority_mask
0205db14 g     F .text	00000088 alt_ic_irq_enable
02047ad4 g     F .text	000001a8 SDHAL_WriteData
02054f70 g     F .text	0000001c __vfprintf_internal
02046174 g     F .text	00000178 fatFindUnusedCluster
0205ccec g     F .text	0000005c _wctomb_r
0204ebd4 g     F .text	000008fc .hidden __subdf3
0205843c g     F .text	000000b0 __lo0bits
0206cf78 g     O .rwdata	00000008 alt_alarm_list
0206162c g     F .text	00000060 _do_ctors
020496ac g     F .text	00000040 SD_ReadData
0205cbfc g     F .text	000000c0 wcrtomb
0205d8dc g     F .text	000000d0 close
0204bc18 g     F .text	000004c8 .hidden __addsf3
02061cc0 g     F .text	00000068 alt_program_amd
02044cec g     F .text	00000050 Fat_Unmount
02042f64 g     F .text	00000d54 fast_version3
0205deac g     F .text	00000084 alt_load
0205c970 g     F .text	00000080 fputwc
0204f984 g     F .text	00000014 free
02057158 g     F .text	00000004 __sinit_lock_acquire
020581b0 g     F .text	00000120 __multadd
02046594 g     F .text	00000044 fatIsLastDir
02058188 g     F .text	00000028 _Bfree
02048814 g     F .text	0000019c SD_CMD3
02047ff4 g     F .text	00000080 SDLIB_ReadBlock512



Disassembly of section .entry:

02040000 <__reset>:
#if NIOS2_ICACHE_SIZE > 0 && defined(ALT_ALLOW_CODE_AT_RESET) && (!defined(ALT_SIM_OPTIMIZE) || defined(NIOS2_ECC_PRESENT))
    /* Assume the instruction cache size is always a power of two. */
#if NIOS2_ICACHE_SIZE > 0x8000
    movhi r2, %hi(NIOS2_ICACHE_SIZE)
#else
    movui r2, NIOS2_ICACHE_SIZE
 2040000:	00840014 	movui	r2,4096
#endif

0:
    initi r2
 2040004:	1001483a 	initi	r2
    addi r2, r2, -NIOS2_ICACHE_LINE_SIZE
 2040008:	10bff804 	addi	r2,r2,-32
    bgt r2, zero, 0b
 204000c:	00bffd16 	blt	zero,r2,2040004 <__alt_data_end+0xfffc0004>
 * Jump to the _start entry point in the .text section if reset code
 * is allowed or if optimizing for RTL simulation.
 */
#if defined(ALT_ALLOW_CODE_AT_RESET) || defined(ALT_SIM_OPTIMIZE)
    /* Jump to the _start entry point in the .text section. */
    movhi r1, %hi(_start)
 2040010:	00408134 	movhi	at,516
    ori r1, r1, %lo(_start)
 2040014:	08409114 	ori	at,at,580
    jmp r1
 2040018:	0800683a 	jmp	at
 204001c:	00000000 	call	0 <__alt_mem_cfi_flash-0x1800000>

Disassembly of section .exceptions:

02040020 <alt_exception>:

#else /* ALT_EXCEPTION_STACK disabled */
        /* 
         * Reserve space on normal stack for registers about to be pushed.
         */
        addi  sp, sp, -76
 2040020:	deffed04 	addi	sp,sp,-76
         * documentation for details).
         *
         * Leave a gap in the stack frame at 4(sp) for the muldiv handler to
         * store zero into.
         */
        stw   ra,  0(sp)
 2040024:	dfc00015 	stw	ra,0(sp)
        stw   r1,   8(sp)
 2040028:	d8400215 	stw	at,8(sp)
        stw   r2,  12(sp)
 204002c:	d8800315 	stw	r2,12(sp)
        stw   r3,  16(sp)
 2040030:	d8c00415 	stw	r3,16(sp)
        stw   r4,  20(sp)
 2040034:	d9000515 	stw	r4,20(sp)
        stw   r5,  24(sp)
 2040038:	d9400615 	stw	r5,24(sp)
        stw   r6,  28(sp)
 204003c:	d9800715 	stw	r6,28(sp)
        stw   r7,  32(sp)
 2040040:	d9c00815 	stw	r7,32(sp)
        rdctl r5, estatus   /* Read early to avoid usage stall */
 2040044:	000b307a 	rdctl	r5,estatus
        stw   r8,  36(sp)
 2040048:	da000915 	stw	r8,36(sp)
        stw   r9,  40(sp)
 204004c:	da400a15 	stw	r9,40(sp)
        stw   r10, 44(sp)
 2040050:	da800b15 	stw	r10,44(sp)
        stw   r11, 48(sp)
 2040054:	dac00c15 	stw	r11,48(sp)
        stw   r12, 52(sp)
 2040058:	db000d15 	stw	r12,52(sp)
        stw   r13, 56(sp)
 204005c:	db400e15 	stw	r13,56(sp)
        stw   r14, 60(sp)
 2040060:	db800f15 	stw	r14,60(sp)
        stw   r15, 64(sp)
 2040064:	dbc01015 	stw	r15,64(sp)
        /*
         * ea-4 contains the address of the instruction being executed
         * when the exception occured. For interrupt exceptions, we will
         * will be re-issue the isntruction. Store it in 72(sp)
         */
        stw   r5,  68(sp)  /* estatus */
 2040068:	d9401115 	stw	r5,68(sp)
        addi  r15, ea, -4  /* instruction that caused exception */
 204006c:	ebffff04 	addi	r15,ea,-4
        stw   r15,  72(sp)
 2040070:	dbc01215 	stw	r15,72(sp)
#else
        /*
         * Test to see if the exception was a software exception or caused 
         * by an external interrupt, and vector accordingly.
         */
        rdctl r4, ipending
 2040074:	0009313a 	rdctl	r4,ipending
        andi  r2, r5, 1
 2040078:	2880004c 	andi	r2,r5,1
        beq   r2, zero, .Lnot_irq
 204007c:	10000326 	beq	r2,zero,204008c <alt_exception+0x6c>
        beq   r4, zero, .Lnot_irq
 2040080:	20000226 	beq	r4,zero,204008c <alt_exception+0x6c>
        /*
         * Now that all necessary registers have been preserved, call 
         * alt_irq_handler() to process the interrupts.
         */

        call alt_irq_handler
 2040084:	20400fc0 	call	20400fc <alt_irq_handler>

        .section .exceptions.irqreturn, "xa"

        br    .Lexception_exit
 2040088:	00000706 	br	20400a8 <alt_exception+0x88>
         * upon completion, so we write ea (address of instruction *after*
         * the one where the exception occured) into 72(sp). The actual
         * instruction that caused the exception is written in r2, which these
         * handlers will utilize.
         */
        stw ea, 72(sp) /* EA is PC+4 so will skip over instruction causing exception */
 204008c:	df401215 	stw	ea,72(sp)
.Lunknown_16bit:
        addi.n r4, r4, 2 /* Need PC+2 to skip over instruction causing exception */
        stw r4, 72(sp)

#else /* CDX is not Enabled and all instructions are 32bits */
        ldw r2, -4(ea) /* Instruction value that caused exception */
 2040090:	e8bfff17 	ldw	r2,-4(ea)
         * debugger is present) or go into an infinite loop since the
         * handling behavior is undefined; in that case we will not return here.
         */

        /* Load exception-causing address as first argument (r4) */
        addi   r4, ea, -4
 2040094:	e93fff04 	addi	r4,ea,-4

        /* Call the instruction-exception entry */
        call   alt_instruction_exception_entry
 2040098:	20401d00 	call	20401d0 <alt_instruction_exception_entry>
         * instruction
         *
         * Return code was 0: Skip. The instruction after the exception is
         * already stored in 72(sp).
         */
        bne   r2, r0, .Lexception_exit
 204009c:	1000021e 	bne	r2,zero,20400a8 <alt_exception+0x88>

        /*
         * Otherwise, modify 72(sp) to re-issue the instruction that caused the
         * exception.
         */
        addi  r15, ea, -4  /* instruction that caused exception */
 20400a0:	ebffff04 	addi	r15,ea,-4
        stw   r15,  72(sp)
 20400a4:	dbc01215 	stw	r15,72(sp)
        /* 
         * Restore the saved registers, so that all general purpose registers 
         * have been restored to their state at the time the interrupt occured.
         */

        ldw   r5,  68(sp)
 20400a8:	d9401117 	ldw	r5,68(sp)
        ldw   ea,  72(sp)  /* This becomes the PC once eret is executed */
 20400ac:	df401217 	ldw	ea,72(sp)
        ldw   ra,   0(sp)
 20400b0:	dfc00017 	ldw	ra,0(sp)

        wrctl estatus, r5
 20400b4:	2801707a 	wrctl	estatus,r5

        ldw   r1,   8(sp)
 20400b8:	d8400217 	ldw	at,8(sp)
        ldw   r2,  12(sp)
 20400bc:	d8800317 	ldw	r2,12(sp)
        ldw   r3,  16(sp)
 20400c0:	d8c00417 	ldw	r3,16(sp)
        ldw   r4,  20(sp)
 20400c4:	d9000517 	ldw	r4,20(sp)
        ldw   r5,  24(sp)
 20400c8:	d9400617 	ldw	r5,24(sp)
        ldw   r6,  28(sp)
 20400cc:	d9800717 	ldw	r6,28(sp)
        ldw   r7,  32(sp)
 20400d0:	d9c00817 	ldw	r7,32(sp)

#if defined(ALT_EXCEPTION_STACK) && defined(ALT_STACK_CHECK)
        ldw   et, %gprel(alt_exception_old_stack_limit)(gp)
#endif

        ldw   r8,  36(sp)
 20400d4:	da000917 	ldw	r8,36(sp)
        ldw   r9,  40(sp)
 20400d8:	da400a17 	ldw	r9,40(sp)
        ldw   r10, 44(sp)
 20400dc:	da800b17 	ldw	r10,44(sp)
        ldw   r11, 48(sp)
 20400e0:	dac00c17 	ldw	r11,48(sp)
        ldw   r12, 52(sp)
 20400e4:	db000d17 	ldw	r12,52(sp)
        ldw   r13, 56(sp)
 20400e8:	db400e17 	ldw	r13,56(sp)
        ldw   r14, 60(sp)
 20400ec:	db800f17 	ldw	r14,60(sp)
        ldw   r15, 64(sp)
 20400f0:	dbc01017 	ldw	r15,64(sp)
        stw   et, %gprel(alt_stack_limit_value)(gp)
        stw   zero, %gprel(alt_exception_old_stack_limit)(gp)
#endif /* ALT_STACK_CHECK */
        ldw   sp,  76(sp)
#else /* ALT_EXCEPTION_STACK disabled */
        addi  sp, sp, 76
 20400f4:	dec01304 	addi	sp,sp,76

        /*
         * Return to the interrupted instruction.
         */

        eret
 20400f8:	ef80083a 	eret

020400fc <alt_irq_handler>:
 * instruction is present if the macro ALT_CI_INTERRUPT_VECTOR defined.
 */

void alt_irq_handler (void) __attribute__ ((section (".exceptions")));
void alt_irq_handler (void)
{
 20400fc:	defff904 	addi	sp,sp,-28
 2040100:	dfc00615 	stw	ra,24(sp)
 2040104:	df000515 	stw	fp,20(sp)
 2040108:	df000504 	addi	fp,sp,20
  
  /*
   * Notify the operating system that we are at interrupt level.
   */ 
  
  ALT_OS_INT_ENTER();
 204010c:	0001883a 	nop
#ifndef NIOS2_EIC_PRESENT
static ALT_INLINE alt_u32 ALT_ALWAYS_INLINE alt_irq_pending (void)
{
  alt_u32 active;

  NIOS2_READ_IPENDING (active);
 2040110:	0005313a 	rdctl	r2,ipending
 2040114:	e0bffe15 	stw	r2,-8(fp)

  return active;
 2040118:	e0bffe17 	ldw	r2,-8(fp)
   * Consider the case where the high priority interupt is asserted during
   * the interrupt entry sequence for a lower priority interrupt to see why
   * this is the case.
   */

  active = alt_irq_pending ();
 204011c:	e0bffb15 	stw	r2,-20(fp)

  do
  {
    i = 0;
 2040120:	e03ffd15 	stw	zero,-12(fp)
    mask = 1;
 2040124:	00800044 	movi	r2,1
 2040128:	e0bffc15 	stw	r2,-16(fp)
     * called to clear the interrupt condition.
     */

    do
    {
      if (active & mask)
 204012c:	e0fffb17 	ldw	r3,-20(fp)
 2040130:	e0bffc17 	ldw	r2,-16(fp)
 2040134:	1884703a 	and	r2,r3,r2
 2040138:	10001426 	beq	r2,zero,204018c <alt_irq_handler+0x90>
      { 
#ifdef ALT_ENHANCED_INTERRUPT_API_PRESENT
        alt_irq[i].handler(alt_irq[i].context); 
 204013c:	008081f4 	movhi	r2,519
 2040140:	10bb1204 	addi	r2,r2,-5048
 2040144:	e0fffd17 	ldw	r3,-12(fp)
 2040148:	180690fa 	slli	r3,r3,3
 204014c:	10c5883a 	add	r2,r2,r3
 2040150:	10c00017 	ldw	r3,0(r2)
 2040154:	008081f4 	movhi	r2,519
 2040158:	10bb1204 	addi	r2,r2,-5048
 204015c:	e13ffd17 	ldw	r4,-12(fp)
 2040160:	200890fa 	slli	r4,r4,3
 2040164:	1105883a 	add	r2,r2,r4
 2040168:	10800104 	addi	r2,r2,4
 204016c:	10800017 	ldw	r2,0(r2)
 2040170:	1009883a 	mov	r4,r2
 2040174:	183ee83a 	callr	r3
#else
        alt_irq[i].handler(alt_irq[i].context, i); 
#endif
        break;
 2040178:	0001883a 	nop
#ifndef NIOS2_EIC_PRESENT
static ALT_INLINE alt_u32 ALT_ALWAYS_INLINE alt_irq_pending (void)
{
  alt_u32 active;

  NIOS2_READ_IPENDING (active);
 204017c:	0005313a 	rdctl	r2,ipending
 2040180:	e0bfff15 	stw	r2,-4(fp)

  return active;
 2040184:	e0bfff17 	ldw	r2,-4(fp)
 2040188:	00000706 	br	20401a8 <alt_irq_handler+0xac>
      }
      mask <<= 1;
 204018c:	e0bffc17 	ldw	r2,-16(fp)
 2040190:	1085883a 	add	r2,r2,r2
 2040194:	e0bffc15 	stw	r2,-16(fp)
      i++;
 2040198:	e0bffd17 	ldw	r2,-12(fp)
 204019c:	10800044 	addi	r2,r2,1
 20401a0:	e0bffd15 	stw	r2,-12(fp)

    } while (1);
 20401a4:	003fe106 	br	204012c <__alt_data_end+0xfffc012c>

    active = alt_irq_pending ();
 20401a8:	e0bffb15 	stw	r2,-20(fp)
    
  } while (active);
 20401ac:	e0bffb17 	ldw	r2,-20(fp)
 20401b0:	103fdb1e 	bne	r2,zero,2040120 <__alt_data_end+0xfffc0120>

  /*
   * Notify the operating system that interrupt processing is complete.
   */ 

  ALT_OS_INT_EXIT();
 20401b4:	0001883a 	nop
}
 20401b8:	0001883a 	nop
 20401bc:	e037883a 	mov	sp,fp
 20401c0:	dfc00117 	ldw	ra,4(sp)
 20401c4:	df000017 	ldw	fp,0(sp)
 20401c8:	dec00204 	addi	sp,sp,8
 20401cc:	f800283a 	ret

020401d0 <alt_instruction_exception_entry>:
 * that handler if it has been registered. Absent a handler, it will
 * break break or hang as discussed below.
 */
int 
alt_instruction_exception_entry (alt_u32 exception_pc)
{
 20401d0:	defffb04 	addi	sp,sp,-20
 20401d4:	dfc00415 	stw	ra,16(sp)
 20401d8:	df000315 	stw	fp,12(sp)
 20401dc:	df000304 	addi	fp,sp,12
 20401e0:	e13fff15 	stw	r4,-4(fp)
 * NIOS2_EXCEPTION_CAUSE_NOT_PRESENT. Your handling routine should
 * check the validity of the cause argument before proceeding.
 */
#ifdef NIOS2_HAS_EXTRA_EXCEPTION_INFO
  /* Get exception cause & "badaddr" */
  NIOS2_READ_EXCEPTION(cause);
 20401e4:	000531fa 	rdctl	r2,exception
 20401e8:	e0bffd15 	stw	r2,-12(fp)
  cause = ( (cause & NIOS2_EXCEPTION_REG_CAUSE_MASK) >>
 20401ec:	e0bffd17 	ldw	r2,-12(fp)
 20401f0:	10801f0c 	andi	r2,r2,124
 20401f4:	1004d0ba 	srli	r2,r2,2
 20401f8:	e0bffd15 	stw	r2,-12(fp)
              NIOS2_EXCEPTION_REG_CAUSE_OFST );

  NIOS2_READ_BADADDR(badaddr);
 20401fc:	0005333a 	rdctl	r2,badaddr
 2040200:	e0bffe15 	stw	r2,-8(fp)
#else
  cause = NIOS2_EXCEPTION_CAUSE_NOT_PRESENT;
  badaddr = 0;
#endif /* NIOS2_HAS_EXTRA_EXCEPTION_INFO */

  if(alt_instruction_exception_handler) {
 2040204:	d0a72b17 	ldw	r2,-25428(gp)
 2040208:	10000726 	beq	r2,zero,2040228 <alt_instruction_exception_entry+0x58>
     * Call handler. Its return value indicates whether the exception-causing
     * instruction should be re-issued. The code that called us,
     * alt_eceptions_entry.S, will look at this value and adjust the ea
     * register as necessary
     */
    return alt_instruction_exception_handler(cause, exception_pc, badaddr);
 204020c:	d0a72b17 	ldw	r2,-25428(gp)
 2040210:	e0fffd17 	ldw	r3,-12(fp)
 2040214:	e1bffe17 	ldw	r6,-8(fp)
 2040218:	e17fff17 	ldw	r5,-4(fp)
 204021c:	1809883a 	mov	r4,r3
 2040220:	103ee83a 	callr	r2
 2040224:	00000206 	br	2040230 <alt_instruction_exception_entry+0x60>
   *    (a peripheral which negates its interrupt output before its
   *    interrupt handler has been executed will cause spurious interrupts)
   */
  else {
#ifdef NIOS2_HAS_DEBUG_STUB
    NIOS2_BREAK();
 2040228:	003da03a 	break	0
      ;
#endif /* NIOS2_HAS_DEBUG_STUB */
  }

  /* We should not get here. Remove compiler warning. */
  return NIOS2_EXCEPTION_RETURN_REISSUE_INST;
 204022c:	0005883a 	mov	r2,zero
}
 2040230:	e037883a 	mov	sp,fp
 2040234:	dfc00117 	ldw	ra,4(sp)
 2040238:	df000017 	ldw	fp,0(sp)
 204023c:	dec00204 	addi	sp,sp,8
 2040240:	f800283a 	ret

Disassembly of section .text:

02040244 <_start>:

    /* Assume the data cache size is always a power of two. */
#if NIOS2_DCACHE_SIZE > 0x8000
    movhi r2, %hi(NIOS2_DCACHE_SIZE)
#else
    movui r2, NIOS2_DCACHE_SIZE
 2040244:	00820014 	movui	r2,2048
#endif

0:
    initd 0(r2)
 2040248:	10000033 	initd	0(r2)
#ifdef NIOS2_ECC_PRESENT
    addi r2, r2, -4
#else
    addi r2, r2, -NIOS2_DCACHE_LINE_SIZE
 204024c:	10bff804 	addi	r2,r2,-32
#endif
    bgt r2, zero, 0b
 2040250:	00bffd16 	blt	zero,r2,2040248 <__alt_data_end+0xfffc0248>

    /*
     * Now that the caches are initialized, set up the stack pointer and global pointer.
     * The values provided by the linker are assumed to be correctly aligned.
     */
    movhi sp, %hi(__alt_stack_pointer)
 2040254:	06c08234 	movhi	sp,520
    ori sp, sp, %lo(__alt_stack_pointer)
 2040258:	dec00014 	ori	sp,sp,0
    movhi gp, %hi(_gp)
 204025c:	068081f4 	movhi	gp,519
    ori gp, gp, %lo(_gp)
 2040260:	d693ce14 	ori	gp,gp,20280
 */
#ifndef ALT_SIM_OPTIMIZE
    /* Log that the BSS is about to be cleared. */
    ALT_LOG_PUTS(alt_log_msg_bss)

    movhi r2, %hi(__bss_start)
 2040264:	008081b4 	movhi	r2,518
    ori r2, r2, %lo(__bss_start)
 2040268:	10baea14 	ori	r2,r2,60328

    movhi r3, %hi(__bss_end)
 204026c:	00c081b4 	movhi	r3,518
    ori r3, r3, %lo(__bss_end)
 2040270:	18fb5214 	ori	r3,r3,60744

    beq r2, r3, 1f
 2040274:	10c00326 	beq	r2,r3,2040284 <_start+0x40>

0:
    stw zero, (r2)
 2040278:	10000015 	stw	zero,0(r2)
    addi r2, r2, 4
 204027c:	10800104 	addi	r2,r2,4
    bltu r2, r3, 0b
 2040280:	10fffd36 	bltu	r2,r3,2040278 <__alt_data_end+0xfffc0278>
     * section aren't defined until alt_load() has been called).
     */
    mov   et, zero
#endif

    call alt_load
 2040284:	205deac0 	call	205deac <alt_load>

    /* Log that alt_main is about to be called. */
    ALT_LOG_PUTS(alt_log_msg_alt_main)

    /* Call the C entry point. It should never return. */
    call alt_main
 2040288:	205e0400 	call	205e040 <alt_main>

0204028c <alt_after_alt_main>:

    /* Wait in infinite loop in case alt_main does return. */
alt_after_alt_main:
    br alt_after_alt_main
 204028c:	003fff06 	br	204028c <__alt_data_end+0xfffc028c>

02040290 <alt_timestamp_start>:
 * The return value of this function is 0 upon sucess and -1 if in timestamp
 * device has not been registered. 
 */

int alt_timestamp_start(void)
{
 2040290:	defffe04 	addi	sp,sp,-8
 2040294:	df000115 	stw	fp,4(sp)
 2040298:	df000104 	addi	fp,sp,4
  void* base = altera_avalon_timer_ts_base;
 204029c:	d0a71c17 	ldw	r2,-25488(gp)
 20402a0:	e0bfff15 	stw	r2,-4(fp)

  if (!altera_avalon_timer_ts_freq)
 20402a4:	d0a71d17 	ldw	r2,-25484(gp)
 20402a8:	1000021e 	bne	r2,zero,20402b4 <alt_timestamp_start+0x24>
  {
    return -1;
 20402ac:	00bfffc4 	movi	r2,-1
 20402b0:	00001106 	br	20402f8 <alt_timestamp_start+0x68>
        IOWR_ALTERA_AVALON_TIMER_PERIOD_1 (base, 0xFFFF);;
        IOWR_ALTERA_AVALON_TIMER_PERIOD_2 (base, 0xFFFF);
        IOWR_ALTERA_AVALON_TIMER_PERIOD_3 (base, 0xFFFF);
        IOWR_ALTERA_AVALON_TIMER_CONTROL (base, ALTERA_AVALON_TIMER_CONTROL_START_MSK);
    } else {
        IOWR_ALTERA_AVALON_TIMER_CONTROL (base,ALTERA_AVALON_TIMER_CONTROL_STOP_MSK);
 20402b4:	e0bfff17 	ldw	r2,-4(fp)
 20402b8:	10800104 	addi	r2,r2,4
 20402bc:	00c00204 	movi	r3,8
 20402c0:	10c00035 	stwio	r3,0(r2)
        IOWR_ALTERA_AVALON_TIMER_PERIODL (base, 0xFFFF);
 20402c4:	e0bfff17 	ldw	r2,-4(fp)
 20402c8:	10800204 	addi	r2,r2,8
 20402cc:	00ffffd4 	movui	r3,65535
 20402d0:	10c00035 	stwio	r3,0(r2)
        IOWR_ALTERA_AVALON_TIMER_PERIODH (base, 0xFFFF);
 20402d4:	e0bfff17 	ldw	r2,-4(fp)
 20402d8:	10800304 	addi	r2,r2,12
 20402dc:	00ffffd4 	movui	r3,65535
 20402e0:	10c00035 	stwio	r3,0(r2)
        IOWR_ALTERA_AVALON_TIMER_CONTROL (base, ALTERA_AVALON_TIMER_CONTROL_START_MSK); 
 20402e4:	e0bfff17 	ldw	r2,-4(fp)
 20402e8:	10800104 	addi	r2,r2,4
 20402ec:	00c00104 	movi	r3,4
 20402f0:	10c00035 	stwio	r3,0(r2)
    } 
  }
  return 0;
 20402f4:	0005883a 	mov	r2,zero
}
 20402f8:	e037883a 	mov	sp,fp
 20402fc:	df000017 	ldw	fp,0(sp)
 2040300:	dec00104 	addi	sp,sp,4
 2040304:	f800283a 	ret

02040308 <alt_timestamp>:
 * The returned timestamp counts up from the last time the period register
 * was reset. 
 */

alt_timestamp_type alt_timestamp(void)
{
 2040308:	defffc04 	addi	sp,sp,-16
 204030c:	df000315 	stw	fp,12(sp)
 2040310:	df000304 	addi	fp,sp,12

  void* base = altera_avalon_timer_ts_base;
 2040314:	d0a71c17 	ldw	r2,-25488(gp)
 2040318:	e0bffd15 	stw	r2,-12(fp)

  if (!altera_avalon_timer_ts_freq)
 204031c:	d0a71d17 	ldw	r2,-25484(gp)
 2040320:	1000021e 	bne	r2,zero,204032c <alt_timestamp+0x24>
  {
#if (ALT_TIMESTAMP_COUNTER_SIZE == 64)
        return 0xFFFFFFFFFFFFFFFFULL;
#else
        return 0xFFFFFFFF;
 2040324:	00bfffc4 	movi	r2,-1
 2040328:	00001306 	br	2040378 <alt_timestamp+0x70>
        alt_timestamp_type snap_2 = IORD_ALTERA_AVALON_TIMER_SNAP_2(base) & ALTERA_AVALON_TIMER_SNAP_2_MSK;
        alt_timestamp_type snap_3 = IORD_ALTERA_AVALON_TIMER_SNAP_3(base) & ALTERA_AVALON_TIMER_SNAP_3_MSK;
        
        return (0xFFFFFFFFFFFFFFFFULL - ( (snap_3 << 48) | (snap_2 << 32) | (snap_1 << 16) | (snap_0) ));
#else
        IOWR_ALTERA_AVALON_TIMER_SNAPL (base, 0);
 204032c:	e0bffd17 	ldw	r2,-12(fp)
 2040330:	10800404 	addi	r2,r2,16
 2040334:	0007883a 	mov	r3,zero
 2040338:	10c00035 	stwio	r3,0(r2)
        alt_timestamp_type lower = IORD_ALTERA_AVALON_TIMER_SNAPL(base) & ALTERA_AVALON_TIMER_SNAPL_MSK;
 204033c:	e0bffd17 	ldw	r2,-12(fp)
 2040340:	10800404 	addi	r2,r2,16
 2040344:	10800037 	ldwio	r2,0(r2)
 2040348:	10bfffcc 	andi	r2,r2,65535
 204034c:	e0bffe15 	stw	r2,-8(fp)
        alt_timestamp_type upper = IORD_ALTERA_AVALON_TIMER_SNAPH(base) & ALTERA_AVALON_TIMER_SNAPH_MSK;
 2040350:	e0bffd17 	ldw	r2,-12(fp)
 2040354:	10800504 	addi	r2,r2,20
 2040358:	10800037 	ldwio	r2,0(r2)
 204035c:	10bfffcc 	andi	r2,r2,65535
 2040360:	e0bfff15 	stw	r2,-4(fp)
        
        return (0xFFFFFFFF - ((upper << 16) | lower)); 
 2040364:	e0bfff17 	ldw	r2,-4(fp)
 2040368:	1006943a 	slli	r3,r2,16
 204036c:	e0bffe17 	ldw	r2,-8(fp)
 2040370:	1884b03a 	or	r2,r3,r2
 2040374:	0084303a 	nor	r2,zero,r2
#endif
  }
}
 2040378:	e037883a 	mov	sp,fp
 204037c:	df000017 	ldw	fp,0(sp)
 2040380:	dec00104 	addi	sp,sp,4
 2040384:	f800283a 	ret

02040388 <alt_timestamp_freq>:
 * Return the number of timestamp ticks per second. This will be 0 if no
 * timestamp device has been registered.
 */

alt_u32 alt_timestamp_freq(void)
{
 2040388:	deffff04 	addi	sp,sp,-4
 204038c:	df000015 	stw	fp,0(sp)
 2040390:	d839883a 	mov	fp,sp
  return altera_avalon_timer_ts_freq;
 2040394:	d0a71d17 	ldw	r2,-25484(gp)
}
 2040398:	e037883a 	mov	sp,fp
 204039c:	df000017 	ldw	fp,0(sp)
 20403a0:	dec00104 	addi	sp,sp,4
 20403a4:	f800283a 	ret

020403a8 <alt_avalon_timer_sc_irq>:
#ifdef ALT_ENHANCED_INTERRUPT_API_PRESENT
static void alt_avalon_timer_sc_irq (void* base)
#else
static void alt_avalon_timer_sc_irq (void* base, alt_u32 id)
#endif
{
 20403a8:	defffa04 	addi	sp,sp,-24
 20403ac:	dfc00515 	stw	ra,20(sp)
 20403b0:	df000415 	stw	fp,16(sp)
 20403b4:	df000404 	addi	fp,sp,16
 20403b8:	e13fff15 	stw	r4,-4(fp)
  alt_irq_context cpu_sr;
  
  /* clear the interrupt */
  IOWR_ALTERA_AVALON_TIMER_STATUS (base, 0);
 20403bc:	0007883a 	mov	r3,zero
 20403c0:	e0bfff17 	ldw	r2,-4(fp)
 20403c4:	10c00035 	stwio	r3,0(r2)
  /* 
   * Dummy read to ensure IRQ is negated before the ISR returns.
   * The control register is read because reading the status
   * register has side-effects per the register map documentation.
   */
  IORD_ALTERA_AVALON_TIMER_CONTROL (base);
 20403c8:	e0bfff17 	ldw	r2,-4(fp)
 20403cc:	10800104 	addi	r2,r2,4
 20403d0:	10800037 	ldwio	r2,0(r2)
static ALT_INLINE alt_irq_context ALT_ALWAYS_INLINE 
       alt_irq_disable_all (void)
{
  alt_irq_context context;

  NIOS2_READ_STATUS (context);
 20403d4:	0005303a 	rdctl	r2,status
 20403d8:	e0bffd15 	stw	r2,-12(fp)

  NIOS2_WRITE_STATUS (context & ~NIOS2_STATUS_PIE_MSK);
 20403dc:	e0fffd17 	ldw	r3,-12(fp)
 20403e0:	00bfff84 	movi	r2,-2
 20403e4:	1884703a 	and	r2,r3,r2
 20403e8:	1001703a 	wrctl	status,r2
  
  return context;
 20403ec:	e0bffd17 	ldw	r2,-12(fp)

  /* 
   * Notify the system of a clock tick. disable interrupts 
   * during this time to safely support ISR preemption
   */
  cpu_sr = alt_irq_disable_all();
 20403f0:	e0bffc15 	stw	r2,-16(fp)
  alt_tick ();
 20403f4:	205e3ec0 	call	205e3ec <alt_tick>
 20403f8:	e0bffc17 	ldw	r2,-16(fp)
 20403fc:	e0bffe15 	stw	r2,-8(fp)
  status &= ~NIOS2_STATUS_PIE_MSK;
  status |= (context & NIOS2_STATUS_PIE_MSK);
  
  NIOS2_WRITE_STATUS (status);
#else
  NIOS2_WRITE_STATUS (context);
 2040400:	e0bffe17 	ldw	r2,-8(fp)
 2040404:	1001703a 	wrctl	status,r2
  alt_irq_enable_all(cpu_sr);
}
 2040408:	0001883a 	nop
 204040c:	e037883a 	mov	sp,fp
 2040410:	dfc00117 	ldw	ra,4(sp)
 2040414:	df000017 	ldw	fp,0(sp)
 2040418:	dec00204 	addi	sp,sp,8
 204041c:	f800283a 	ret

02040420 <alt_avalon_timer_sc_init>:
 * auto-generated alt_sys_init() function.
 */

void alt_avalon_timer_sc_init (void* base, alt_u32 irq_controller_id, 
                                alt_u32 irq, alt_u32 freq)
{
 2040420:	defff804 	addi	sp,sp,-32
 2040424:	dfc00715 	stw	ra,28(sp)
 2040428:	df000615 	stw	fp,24(sp)
 204042c:	df000604 	addi	fp,sp,24
 2040430:	e13ffc15 	stw	r4,-16(fp)
 2040434:	e17ffd15 	stw	r5,-12(fp)
 2040438:	e1bffe15 	stw	r6,-8(fp)
 204043c:	e1ffff15 	stw	r7,-4(fp)
 2040440:	e0bfff17 	ldw	r2,-4(fp)
 2040444:	e0bffb15 	stw	r2,-20(fp)
 * in order to initialise the value of the clock frequency.
 */

static ALT_INLINE int ALT_ALWAYS_INLINE alt_sysclk_init (alt_u32 nticks)
{
  if (! _alt_tick_rate)
 2040448:	d0a72917 	ldw	r2,-25436(gp)
 204044c:	1000021e 	bne	r2,zero,2040458 <alt_avalon_timer_sc_init+0x38>
  {
    _alt_tick_rate = nticks;
 2040450:	e0bffb17 	ldw	r2,-20(fp)
 2040454:	d0a72915 	stw	r2,-25436(gp)
  
  alt_sysclk_init (freq);
  
  /* set to free running mode */
  
  IOWR_ALTERA_AVALON_TIMER_CONTROL (base, 
 2040458:	e0bffc17 	ldw	r2,-16(fp)
 204045c:	10800104 	addi	r2,r2,4
 2040460:	00c001c4 	movi	r3,7
 2040464:	10c00035 	stwio	r3,0(r2)
            ALTERA_AVALON_TIMER_CONTROL_CONT_MSK |
            ALTERA_AVALON_TIMER_CONTROL_START_MSK);

  /* register the interrupt handler, and enable the interrupt */
#ifdef ALT_ENHANCED_INTERRUPT_API_PRESENT
  alt_ic_isr_register(irq_controller_id, irq, alt_avalon_timer_sc_irq, 
 2040468:	d8000015 	stw	zero,0(sp)
 204046c:	e1fffc17 	ldw	r7,-16(fp)
 2040470:	01808134 	movhi	r6,516
 2040474:	3180ea04 	addi	r6,r6,936
 2040478:	e17ffe17 	ldw	r5,-8(fp)
 204047c:	e13ffd17 	ldw	r4,-12(fp)
 2040480:	205dac40 	call	205dac4 <alt_ic_isr_register>
                      base, NULL);
#else
  alt_irq_register (irq, base, alt_avalon_timer_sc_irq);
#endif  
}
 2040484:	0001883a 	nop
 2040488:	e037883a 	mov	sp,fp
 204048c:	dfc00117 	ldw	ra,4(sp)
 2040490:	df000017 	ldw	fp,0(sp)
 2040494:	dec00204 	addi	sp,sp,8
 2040498:	f800283a 	ret

0204049c <ConvertNumberToFloat>:
void draw_menu2(short unsigned int nimages);
void draw_menu3();
void draw_menu();

float ConvertNumberToFloat(unsigned long number)
{
 204049c:	defff004 	addi	sp,sp,-64
 20404a0:	dfc00f15 	stw	ra,60(sp)
 20404a4:	df000e15 	stw	fp,56(sp)
 20404a8:	dc400d15 	stw	r17,52(sp)
 20404ac:	dc000c15 	stw	r16,48(sp)
 20404b0:	df000e04 	addi	fp,sp,56
 20404b4:	e13ffd15 	stw	r4,-12(fp)
    int mantissaShift =  23;
 20404b8:	008005c4 	movi	r2,23
 20404bc:	e0bff515 	stw	r2,-44(fp)
    unsigned long exponentMask =  0x7f800000;
 20404c0:	009fe034 	movhi	r2,32640
 20404c4:	e0bff615 	stw	r2,-40(fp)
    int bias =  127;
 20404c8:	00801fc4 	movi	r2,127
 20404cc:	e0bff715 	stw	r2,-36(fp)
    int signShift = 31;
 20404d0:	008007c4 	movi	r2,31
 20404d4:	e0bff815 	stw	r2,-32(fp)

    int sign = (number >> signShift) & 0x01;
 20404d8:	e0fffd17 	ldw	r3,-12(fp)
 20404dc:	e0bff817 	ldw	r2,-32(fp)
 20404e0:	1884d83a 	srl	r2,r3,r2
 20404e4:	1080004c 	andi	r2,r2,1
 20404e8:	e0bff915 	stw	r2,-28(fp)
    int exponent = ((number & exponentMask) >> mantissaShift) - bias;
 20404ec:	e0fffd17 	ldw	r3,-12(fp)
 20404f0:	e0bff617 	ldw	r2,-40(fp)
 20404f4:	1886703a 	and	r3,r3,r2
 20404f8:	e0bff517 	ldw	r2,-44(fp)
 20404fc:	1886d83a 	srl	r3,r3,r2
 2040500:	e0bff717 	ldw	r2,-36(fp)
 2040504:	1885c83a 	sub	r2,r3,r2
 2040508:	e0bffa15 	stw	r2,-24(fp)

    int power = -1;
 204050c:	00bfffc4 	movi	r2,-1
 2040510:	e0bff215 	stw	r2,-56(fp)
    float total = 0.0;
 2040514:	e03ff315 	stw	zero,-52(fp)
    for ( int i = 0; i < mantissaShift; i++ )
 2040518:	e03ff415 	stw	zero,-48(fp)
 204051c:	00003806 	br	2040600 <ConvertNumberToFloat+0x164>
    {
        int calc = (number >> (mantissaShift-i-1)) & 0x01;
 2040520:	e0fff517 	ldw	r3,-44(fp)
 2040524:	e0bff417 	ldw	r2,-48(fp)
 2040528:	1885c83a 	sub	r2,r3,r2
 204052c:	10bfffc4 	addi	r2,r2,-1
 2040530:	e0fffd17 	ldw	r3,-12(fp)
 2040534:	1884d83a 	srl	r2,r3,r2
 2040538:	1080004c 	andi	r2,r2,1
 204053c:	e0bffb15 	stw	r2,-20(fp)
        total += calc * pow(2.0, power);
 2040540:	e13ffb17 	ldw	r4,-20(fp)
 2040544:	204f5500 	call	204f550 <__floatsidf>
 2040548:	1021883a 	mov	r16,r2
 204054c:	1823883a 	mov	r17,r3
 2040550:	e13ff217 	ldw	r4,-56(fp)
 2040554:	204f5500 	call	204f550 <__floatsidf>
 2040558:	1009883a 	mov	r4,r2
 204055c:	180b883a 	mov	r5,r3
 2040560:	200d883a 	mov	r6,r4
 2040564:	280f883a 	mov	r7,r5
 2040568:	0009883a 	mov	r4,zero
 204056c:	01500034 	movhi	r5,16384
 2040570:	20499300 	call	2049930 <pow>
 2040574:	1009883a 	mov	r4,r2
 2040578:	180b883a 	mov	r5,r3
 204057c:	200d883a 	mov	r6,r4
 2040580:	280f883a 	mov	r7,r5
 2040584:	8009883a 	mov	r4,r16
 2040588:	880b883a 	mov	r5,r17
 204058c:	204e4bc0 	call	204e4bc <__muldf3>
 2040590:	1009883a 	mov	r4,r2
 2040594:	180b883a 	mov	r5,r3
 2040598:	2021883a 	mov	r16,r4
 204059c:	2823883a 	mov	r17,r5
 20405a0:	e13ff317 	ldw	r4,-52(fp)
 20405a4:	204f62c0 	call	204f62c <__extendsfdf2>
 20405a8:	1011883a 	mov	r8,r2
 20405ac:	1813883a 	mov	r9,r3
 20405b0:	800d883a 	mov	r6,r16
 20405b4:	880f883a 	mov	r7,r17
 20405b8:	4009883a 	mov	r4,r8
 20405bc:	480b883a 	mov	r5,r9
 20405c0:	204d0d00 	call	204d0d0 <__adddf3>
 20405c4:	1009883a 	mov	r4,r2
 20405c8:	180b883a 	mov	r5,r3
 20405cc:	2005883a 	mov	r2,r4
 20405d0:	2807883a 	mov	r3,r5
 20405d4:	1009883a 	mov	r4,r2
 20405d8:	180b883a 	mov	r5,r3
 20405dc:	204f73c0 	call	204f73c <__truncdfsf2>
 20405e0:	1007883a 	mov	r3,r2
 20405e4:	e0fff315 	stw	r3,-52(fp)
        power--;
 20405e8:	e0bff217 	ldw	r2,-56(fp)
 20405ec:	10bfffc4 	addi	r2,r2,-1
 20405f0:	e0bff215 	stw	r2,-56(fp)
    int sign = (number >> signShift) & 0x01;
    int exponent = ((number & exponentMask) >> mantissaShift) - bias;

    int power = -1;
    float total = 0.0;
    for ( int i = 0; i < mantissaShift; i++ )
 20405f4:	e0bff417 	ldw	r2,-48(fp)
 20405f8:	10800044 	addi	r2,r2,1
 20405fc:	e0bff415 	stw	r2,-48(fp)
 2040600:	e0fff417 	ldw	r3,-48(fp)
 2040604:	e0bff517 	ldw	r2,-44(fp)
 2040608:	18bfc516 	blt	r3,r2,2040520 <__alt_data_end+0xfffc0520>
    {
        int calc = (number >> (mantissaShift-i-1)) & 0x01;
        total += calc * pow(2.0, power);
        power--;
    }
    float value = (sign ? -1 : 1) * pow(2.0, exponent) * (total + 1.0);
 204060c:	e0bff917 	ldw	r2,-28(fp)
 2040610:	10000326 	beq	r2,zero,2040620 <ConvertNumberToFloat+0x184>
 2040614:	0021883a 	mov	r16,zero
 2040618:	046ffc34 	movhi	r17,49136
 204061c:	00000206 	br	2040628 <ConvertNumberToFloat+0x18c>
 2040620:	0021883a 	mov	r16,zero
 2040624:	044ffc34 	movhi	r17,16368
 2040628:	e13ffa17 	ldw	r4,-24(fp)
 204062c:	204f5500 	call	204f550 <__floatsidf>
 2040630:	1009883a 	mov	r4,r2
 2040634:	180b883a 	mov	r5,r3
 2040638:	200d883a 	mov	r6,r4
 204063c:	280f883a 	mov	r7,r5
 2040640:	0009883a 	mov	r4,zero
 2040644:	01500034 	movhi	r5,16384
 2040648:	20499300 	call	2049930 <pow>
 204064c:	1009883a 	mov	r4,r2
 2040650:	180b883a 	mov	r5,r3
 2040654:	200d883a 	mov	r6,r4
 2040658:	280f883a 	mov	r7,r5
 204065c:	8009883a 	mov	r4,r16
 2040660:	880b883a 	mov	r5,r17
 2040664:	204e4bc0 	call	204e4bc <__muldf3>
 2040668:	1009883a 	mov	r4,r2
 204066c:	180b883a 	mov	r5,r3
 2040670:	2021883a 	mov	r16,r4
 2040674:	2823883a 	mov	r17,r5
 2040678:	e13ff317 	ldw	r4,-52(fp)
 204067c:	204f62c0 	call	204f62c <__extendsfdf2>
 2040680:	1011883a 	mov	r8,r2
 2040684:	1813883a 	mov	r9,r3
 2040688:	000d883a 	mov	r6,zero
 204068c:	01cffc34 	movhi	r7,16368
 2040690:	4009883a 	mov	r4,r8
 2040694:	480b883a 	mov	r5,r9
 2040698:	204d0d00 	call	204d0d0 <__adddf3>
 204069c:	1009883a 	mov	r4,r2
 20406a0:	180b883a 	mov	r5,r3
 20406a4:	2005883a 	mov	r2,r4
 20406a8:	2807883a 	mov	r3,r5
 20406ac:	100d883a 	mov	r6,r2
 20406b0:	180f883a 	mov	r7,r3
 20406b4:	8009883a 	mov	r4,r16
 20406b8:	880b883a 	mov	r5,r17
 20406bc:	204e4bc0 	call	204e4bc <__muldf3>
 20406c0:	1009883a 	mov	r4,r2
 20406c4:	180b883a 	mov	r5,r3
 20406c8:	2005883a 	mov	r2,r4
 20406cc:	2807883a 	mov	r3,r5
 20406d0:	1009883a 	mov	r4,r2
 20406d4:	180b883a 	mov	r5,r3
 20406d8:	204f73c0 	call	204f73c <__truncdfsf2>
 20406dc:	1007883a 	mov	r3,r2
 20406e0:	e0fffc15 	stw	r3,-16(fp)

    return value;
 20406e4:	e0bffc17 	ldw	r2,-16(fp)
 20406e8:	1007883a 	mov	r3,r2
}
 20406ec:	1805883a 	mov	r2,r3
 20406f0:	e6fffe04 	addi	sp,fp,-8
 20406f4:	dfc00317 	ldw	ra,12(sp)
 20406f8:	df000217 	ldw	fp,8(sp)
 20406fc:	dc400117 	ldw	r17,4(sp)
 2040700:	dc000017 	ldw	r16,0(sp)
 2040704:	dec00404 	addi	sp,sp,16
 2040708:	f800283a 	ret

0204070c <step_version>:

//-----------------------------
int step_version(const neural_network_t network,FAT_HANDLE hFat ){
 204070c:	deff9704 	addi	sp,sp,-420
 2040710:	dfc06415 	stw	ra,400(sp)
 2040714:	df006315 	stw	fp,396(sp)
 2040718:	dc006215 	stw	r16,392(sp)
 204071c:	df006304 	addi	fp,sp,396
 2040720:	e1000215 	stw	r4,8(fp)
 2040724:	e1400315 	stw	r5,12(fp)
 2040728:	e1800415 	stw	r6,16(fp)
 204072c:	e1c00515 	stw	r7,20(fp)
	alt_up_char_buffer_dev * char_buffer = NULL ;
 2040730:	e03fa715 	stw	zero,-356(fp)
	char_buffer = alt_up_char_buffer_open_dev ("/dev/video_character_buffer_with_dma_0");
 2040734:	010081b4 	movhi	r4,518
 2040738:	210ad304 	addi	r4,r4,11084
 204073c:	2060fa80 	call	2060fa8 <alt_up_char_buffer_open_dev>
 2040740:	e0bfa715 	stw	r2,-356(fp)
	alt_up_char_buffer_init(char_buffer);
 2040744:	e13fa717 	ldw	r4,-356(fp)
 2040748:	2060f280 	call	2060f28 <alt_up_char_buffer_init>
	alt_up_char_buffer_clear(char_buffer);
 204074c:	e13fa717 	ldw	r4,-356(fp)
 2040750:	20611ac0 	call	20611ac <alt_up_char_buffer_clear>

	float activations[MNIST_LABELS], max_activation,time,avgtime,freq;
	int i,j, predict,label,delay;
	char nome[14];

	time=0;
 2040754:	e03fa815 	stw	zero,-352(fp)
	avgtime=0;
 2040758:	e03f9e15 	stw	zero,-392(fp)
	i=0;
 204075c:	e03f9f15 	stw	zero,-388(fp)
	delay = 0;
 2040760:	e03fa215 	stw	zero,-376(fp)
	float FP[10];

	float precision[10];
	float recall[10];
	float f1scores[10];
	for (i = 0; i<10;i++){
 2040764:	e03f9f15 	stw	zero,-388(fp)
 2040768:	00002d06 	br	2040820 <step_version+0x114>
		precision[i]=0;
 204076c:	e0bf9f17 	ldw	r2,-388(fp)
 2040770:	1085883a 	add	r2,r2,r2
 2040774:	1085883a 	add	r2,r2,r2
 2040778:	e0ff9d04 	addi	r3,fp,-396
 204077c:	1885883a 	add	r2,r3,r2
 2040780:	10803c04 	addi	r2,r2,240
 2040784:	10000015 	stw	zero,0(r2)
		recall[i]=0;
 2040788:	e0bf9f17 	ldw	r2,-388(fp)
 204078c:	1085883a 	add	r2,r2,r2
 2040790:	1085883a 	add	r2,r2,r2
 2040794:	e13f9d04 	addi	r4,fp,-396
 2040798:	2085883a 	add	r2,r4,r2
 204079c:	10804604 	addi	r2,r2,280
 20407a0:	10000015 	stw	zero,0(r2)
		f1scores[i]=0;
 20407a4:	e0bf9f17 	ldw	r2,-388(fp)
 20407a8:	1085883a 	add	r2,r2,r2
 20407ac:	1085883a 	add	r2,r2,r2
 20407b0:	e0ff9d04 	addi	r3,fp,-396
 20407b4:	1885883a 	add	r2,r3,r2
 20407b8:	10805004 	addi	r2,r2,320
 20407bc:	10000015 	stw	zero,0(r2)
		FN[i]=0;
 20407c0:	e0bf9f17 	ldw	r2,-388(fp)
 20407c4:	1085883a 	add	r2,r2,r2
 20407c8:	1085883a 	add	r2,r2,r2
 20407cc:	e13f9d04 	addi	r4,fp,-396
 20407d0:	2085883a 	add	r2,r4,r2
 20407d4:	10801e04 	addi	r2,r2,120
 20407d8:	10000015 	stw	zero,0(r2)
		TP[i]=0;
 20407dc:	e0bf9f17 	ldw	r2,-388(fp)
 20407e0:	1085883a 	add	r2,r2,r2
 20407e4:	1085883a 	add	r2,r2,r2
 20407e8:	e0ff9d04 	addi	r3,fp,-396
 20407ec:	1885883a 	add	r2,r3,r2
 20407f0:	10802804 	addi	r2,r2,160
 20407f4:	10000015 	stw	zero,0(r2)
		FP[i]=0;
 20407f8:	e0bf9f17 	ldw	r2,-388(fp)
 20407fc:	1085883a 	add	r2,r2,r2
 2040800:	1085883a 	add	r2,r2,r2
 2040804:	e13f9d04 	addi	r4,fp,-396
 2040808:	2085883a 	add	r2,r4,r2
 204080c:	10803204 	addi	r2,r2,200
 2040810:	10000015 	stw	zero,0(r2)
	float FP[10];

	float precision[10];
	float recall[10];
	float f1scores[10];
	for (i = 0; i<10;i++){
 2040814:	e0bf9f17 	ldw	r2,-388(fp)
 2040818:	10800044 	addi	r2,r2,1
 204081c:	e0bf9f15 	stw	r2,-388(fp)
 2040820:	e0bf9f17 	ldw	r2,-388(fp)
 2040824:	10800290 	cmplti	r2,r2,10
 2040828:	103fd01e 	bne	r2,zero,204076c <__alt_data_end+0xfffc076c>
		FN[i]=0;
		TP[i]=0;
		FP[i]=0;
	}

	int *pixels = NULL;
 204082c:	e03fa915 	stw	zero,-348(fp)
	pixels = (int *) malloc(sizeof(int)*784);
 2040830:	01031004 	movi	r4,3136
 2040834:	204f9700 	call	204f970 <malloc>
 2040838:	e0bfa915 	stw	r2,-348(fp)

	alt_up_char_buffer_string(char_buffer ," Press key 0 to start first sample ",24,24);
 204083c:	01c00604 	movi	r7,24
 2040840:	01800604 	movi	r6,24
 2040844:	014081b4 	movhi	r5,518
 2040848:	294add04 	addi	r5,r5,11124
 204084c:	e13fa717 	ldw	r4,-356(fp)
 2040850:	20610b00 	call	20610b0 <alt_up_char_buffer_string>
	i=21;
 2040854:	00800544 	movi	r2,21
 2040858:	e0bf9f15 	stw	r2,-388(fp)
	while(1){
		if(IORD_ALTERA_AVALON_PIO_DATA(KEY_BASE) == 14){
 204085c:	00808234 	movhi	r2,520
 2040860:	108c1804 	addi	r2,r2,12384
 2040864:	10800037 	ldwio	r2,0(r2)
 2040868:	10800398 	cmpnei	r2,r2,14
 204086c:	1001bb1e 	bne	r2,zero,2040f5c <step_version+0x850>

			while(delay<1000000)
 2040870:	00000306 	br	2040880 <step_version+0x174>
				delay++;
 2040874:	e0bfa217 	ldw	r2,-376(fp)
 2040878:	10800044 	addi	r2,r2,1
 204087c:	e0bfa215 	stw	r2,-376(fp)
	alt_up_char_buffer_string(char_buffer ," Press key 0 to start first sample ",24,24);
	i=21;
	while(1){
		if(IORD_ALTERA_AVALON_PIO_DATA(KEY_BASE) == 14){

			while(delay<1000000)
 2040880:	e0ffa217 	ldw	r3,-376(fp)
 2040884:	008003f4 	movhi	r2,15
 2040888:	10908fc4 	addi	r2,r2,16959
 204088c:	10fff90e 	bge	r2,r3,2040874 <__alt_data_end+0xfffc0874>
				delay++;
			delay=0;
 2040890:	e03fa215 	stw	zero,-376(fp)

			snprintf(nome, 14, "%d.txt", i);
 2040894:	e0bfb704 	addi	r2,fp,-292
 2040898:	e1ff9f17 	ldw	r7,-388(fp)
 204089c:	018081b4 	movhi	r6,518
 20408a0:	318ae604 	addi	r6,r6,11160
 20408a4:	01400384 	movi	r5,14
 20408a8:	1009883a 	mov	r4,r2
 20408ac:	20506a00 	call	20506a0 <snprintf>
			label = readimage(hFat,pixels,nome);
 20408b0:	e0bfb704 	addi	r2,fp,-292
 20408b4:	100d883a 	mov	r6,r2
 20408b8:	e17fa917 	ldw	r5,-348(fp)
 20408bc:	e11eac17 	ldw	r4,31408(fp)
 20408c0:	204430c0 	call	204430c <readimage>
 20408c4:	e0bfaa15 	stw	r2,-344(fp)
		    int ki, kj;
		    float ksum, kmax;

		    unsigned int ui;

		    alt_timestamp_start();
 20408c8:	20402900 	call	2040290 <alt_timestamp_start>
		    //pixel preprocessing and initializing
		    IOWR_ALTERA_AVALON_PIO_DATA(SYNC_DATA_BASE,1<<7);
 20408cc:	00c02004 	movi	r3,128
 20408d0:	00808234 	movhi	r2,520
 20408d4:	108c1004 	addi	r2,r2,12352
 20408d8:	10c00035 	stwio	r3,0(r2)
		    for (kj = 0; kj < MNIST_IMAGE_SIZE; kj++){
 20408dc:	e03fa415 	stw	zero,-368(fp)
 20408e0:	00002806 	br	2040984 <step_version+0x278>
		    	float f = pixels[kj] / 255.0;
 20408e4:	e0bfa417 	ldw	r2,-368(fp)
 20408e8:	1085883a 	add	r2,r2,r2
 20408ec:	1085883a 	add	r2,r2,r2
 20408f0:	1007883a 	mov	r3,r2
 20408f4:	e0bfa917 	ldw	r2,-348(fp)
 20408f8:	10c5883a 	add	r2,r2,r3
 20408fc:	10800017 	ldw	r2,0(r2)
 2040900:	1009883a 	mov	r4,r2
 2040904:	204f5500 	call	204f550 <__floatsidf>
 2040908:	1011883a 	mov	r8,r2
 204090c:	1813883a 	mov	r9,r3
 2040910:	000d883a 	mov	r6,zero
 2040914:	01d01c34 	movhi	r7,16496
 2040918:	39f80004 	addi	r7,r7,-8192
 204091c:	4009883a 	mov	r4,r8
 2040920:	480b883a 	mov	r5,r9
 2040924:	204d97c0 	call	204d97c <__divdf3>
 2040928:	1009883a 	mov	r4,r2
 204092c:	180b883a 	mov	r5,r3
 2040930:	2005883a 	mov	r2,r4
 2040934:	2807883a 	mov	r3,r5
 2040938:	1009883a 	mov	r4,r2
 204093c:	180b883a 	mov	r5,r3
 2040940:	204f73c0 	call	204f73c <__truncdfsf2>
 2040944:	1007883a 	mov	r3,r2
 2040948:	e0fffd15 	stw	r3,-12(fp)
				memcpy(&ui, &f, sizeof (ui));
 204094c:	e0bffd17 	ldw	r2,-12(fp)
 2040950:	e0bffc15 	stw	r2,-16(fp)
				IOWR_ALTERA_AVALON_PIO_DATA(PIXEL_INDEX_BASE,kj);
 2040954:	00808234 	movhi	r2,520
 2040958:	108c0c04 	addi	r2,r2,12336
 204095c:	e0ffa417 	ldw	r3,-368(fp)
 2040960:	10c00035 	stwio	r3,0(r2)
				IOWR_ALTERA_AVALON_PIO_DATA(FLOATDATA_OUTPUT_BASE,ui);
 2040964:	e0bffc17 	ldw	r2,-16(fp)
 2040968:	1007883a 	mov	r3,r2
 204096c:	00808234 	movhi	r2,520
 2040970:	108c1404 	addi	r2,r2,12368
 2040974:	10c00035 	stwio	r3,0(r2)
		    unsigned int ui;

		    alt_timestamp_start();
		    //pixel preprocessing and initializing
		    IOWR_ALTERA_AVALON_PIO_DATA(SYNC_DATA_BASE,1<<7);
		    for (kj = 0; kj < MNIST_IMAGE_SIZE; kj++){
 2040978:	e0bfa417 	ldw	r2,-368(fp)
 204097c:	10800044 	addi	r2,r2,1
 2040980:	e0bfa415 	stw	r2,-368(fp)
 2040984:	e0bfa417 	ldw	r2,-368(fp)
 2040988:	1080c410 	cmplti	r2,r2,784
 204098c:	103fd51e 	bne	r2,zero,20408e4 <__alt_data_end+0xfffc08e4>
				IOWR_ALTERA_AVALON_PIO_DATA(PIXEL_INDEX_BASE,kj);
				IOWR_ALTERA_AVALON_PIO_DATA(FLOATDATA_OUTPUT_BASE,ui);
		    }

		    //activations initializing
		    IOWR_ALTERA_AVALON_PIO_DATA(SYNC_DATA_BASE, (1<<4)+(1<<5));
 2040990:	00c00c04 	movi	r3,48
 2040994:	00808234 	movhi	r2,520
 2040998:	108c1004 	addi	r2,r2,12352
 204099c:	10c00035 	stwio	r3,0(r2)
		    for (ki = 0; ki < MNIST_LABELS; ki++) {
 20409a0:	e03fa315 	stw	zero,-372(fp)
 20409a4:	00001506 	br	20409fc <step_version+0x2f0>
		    	float f = network.b[ki];
 20409a8:	e0bfa317 	ldw	r2,-372(fp)
 20409ac:	1085883a 	add	r2,r2,r2
 20409b0:	1085883a 	add	r2,r2,r2
 20409b4:	e1000204 	addi	r4,fp,8
 20409b8:	2087883a 	add	r3,r4,r2
 20409bc:	18800017 	ldw	r2,0(r3)
 20409c0:	e0bffe15 	stw	r2,-8(fp)
		    	memcpy(&ui, &f, sizeof (ui));
 20409c4:	e0bffe17 	ldw	r2,-8(fp)
 20409c8:	e0bffc15 	stw	r2,-16(fp)
		    	IOWR_ALTERA_AVALON_PIO_DATA(ACTIVATIONS_INDEX_BASE, ki);
 20409cc:	00808234 	movhi	r2,520
 20409d0:	108c0004 	addi	r2,r2,12288
 20409d4:	e0ffa317 	ldw	r3,-372(fp)
 20409d8:	10c00035 	stwio	r3,0(r2)
		    	IOWR_ALTERA_AVALON_PIO_DATA(FLOATDATA_OUTPUT_BASE, ui);
 20409dc:	e0bffc17 	ldw	r2,-16(fp)
 20409e0:	1007883a 	mov	r3,r2
 20409e4:	00808234 	movhi	r2,520
 20409e8:	108c1404 	addi	r2,r2,12368
 20409ec:	10c00035 	stwio	r3,0(r2)
				IOWR_ALTERA_AVALON_PIO_DATA(FLOATDATA_OUTPUT_BASE,ui);
		    }

		    //activations initializing
		    IOWR_ALTERA_AVALON_PIO_DATA(SYNC_DATA_BASE, (1<<4)+(1<<5));
		    for (ki = 0; ki < MNIST_LABELS; ki++) {
 20409f0:	e0bfa317 	ldw	r2,-372(fp)
 20409f4:	10800044 	addi	r2,r2,1
 20409f8:	e0bfa315 	stw	r2,-372(fp)
 20409fc:	e0bfa317 	ldw	r2,-372(fp)
 2040a00:	10800290 	cmplti	r2,r2,10
 2040a04:	103fe81e 	bne	r2,zero,20409a8 <__alt_data_end+0xfffc09a8>
		    	IOWR_ALTERA_AVALON_PIO_DATA(ACTIVATIONS_INDEX_BASE, ki);
		    	IOWR_ALTERA_AVALON_PIO_DATA(FLOATDATA_OUTPUT_BASE, ui);
		    }


			for (ki = 0; ki < 10; ki++) {
 2040a08:	e03fa315 	stw	zero,-372(fp)
 2040a0c:	00004206 	br	2040b18 <step_version+0x40c>

				IOWR_ALTERA_AVALON_PIO_DATA(ACTIVATIONS_INDEX_BASE, ki);
 2040a10:	00808234 	movhi	r2,520
 2040a14:	108c0004 	addi	r2,r2,12288
 2040a18:	e0ffa317 	ldw	r3,-372(fp)
 2040a1c:	10c00035 	stwio	r3,0(r2)
				IOWR_ALTERA_AVALON_PIO_DATA(SYNC_DATA_BASE, (1<<5));
 2040a20:	00c00804 	movi	r3,32
 2040a24:	00808234 	movhi	r2,520
 2040a28:	108c1004 	addi	r2,r2,12352
 2040a2c:	10c00035 	stwio	r3,0(r2)
				IOWR_ALTERA_AVALON_PIO_DATA(SYNC_DATA_BASE,0);
 2040a30:	0007883a 	mov	r3,zero
 2040a34:	00808234 	movhi	r2,520
 2040a38:	108c1004 	addi	r2,r2,12352
 2040a3c:	10c00035 	stwio	r3,0(r2)
		    	IOWR_ALTERA_AVALON_PIO_DATA(SYNC_DATA_BASE,1);
 2040a40:	00c00044 	movi	r3,1
 2040a44:	00808234 	movhi	r2,520
 2040a48:	108c1004 	addi	r2,r2,12352
 2040a4c:	10c00035 	stwio	r3,0(r2)

				for (kj = 0; kj < 784; kj++) {
 2040a50:	e03fa415 	stw	zero,-368(fp)
 2040a54:	00002a06 	br	2040b00 <step_version+0x3f4>

			    	IOWR_ALTERA_AVALON_PIO_DATA(WEIGHT_INDEX_BASE,ki*784+kj); //double index
 2040a58:	e0bfa317 	ldw	r2,-372(fp)
 2040a5c:	10c0c424 	muli	r3,r2,784
 2040a60:	e0bfa417 	ldw	r2,-368(fp)
 2040a64:	1887883a 	add	r3,r3,r2
 2040a68:	00808234 	movhi	r2,520
 2040a6c:	108c0804 	addi	r2,r2,12320
 2040a70:	10c00035 	stwio	r3,0(r2)
			    	IOWR_ALTERA_AVALON_PIO_DATA(SYNC_DATA_BASE, (1<<8));
 2040a74:	00c04004 	movi	r3,256
 2040a78:	00808234 	movhi	r2,520
 2040a7c:	108c1004 	addi	r2,r2,12352
 2040a80:	10c00035 	stwio	r3,0(r2)

			    	IOWR_ALTERA_AVALON_PIO_DATA(PIXEL_INDEX_BASE,kj); //pixel idx
 2040a84:	00808234 	movhi	r2,520
 2040a88:	108c0c04 	addi	r2,r2,12336
 2040a8c:	e0ffa417 	ldw	r3,-368(fp)
 2040a90:	10c00035 	stwio	r3,0(r2)
			    	IOWR_ALTERA_AVALON_PIO_DATA(SYNC_DATA_BASE, (1<<8)+(1<<9));
 2040a94:	00c0c004 	movi	r3,768
 2040a98:	00808234 	movhi	r2,520
 2040a9c:	108c1004 	addi	r2,r2,12352
 2040aa0:	10c00035 	stwio	r3,0(r2)

			    	IOWR_ALTERA_AVALON_PIO_DATA(SYNC_DATA_BASE,0);
 2040aa4:	0007883a 	mov	r3,zero
 2040aa8:	00808234 	movhi	r2,520
 2040aac:	108c1004 	addi	r2,r2,12352
 2040ab0:	10c00035 	stwio	r3,0(r2)
					IOWR_ALTERA_AVALON_PIO_DATA(SYNC_DATA_BASE,2);
 2040ab4:	00c00084 	movi	r3,2
 2040ab8:	00808234 	movhi	r2,520
 2040abc:	108c1004 	addi	r2,r2,12352
 2040ac0:	10c00035 	stwio	r3,0(r2)
			    	IOWR_ALTERA_AVALON_PIO_DATA(SYNC_DATA_BASE, (1<<4)+(1<<8)+(1<<9));
 2040ac4:	00c0c404 	movi	r3,784
 2040ac8:	00808234 	movhi	r2,520
 2040acc:	108c1004 	addi	r2,r2,12352
 2040ad0:	10c00035 	stwio	r3,0(r2)
					IOWR_ALTERA_AVALON_PIO_DATA(SYNC_DATA_BASE,0);
 2040ad4:	0007883a 	mov	r3,zero
 2040ad8:	00808234 	movhi	r2,520
 2040adc:	108c1004 	addi	r2,r2,12352
 2040ae0:	10c00035 	stwio	r3,0(r2)
			    	IOWR_ALTERA_AVALON_PIO_DATA(SYNC_DATA_BASE,1);
 2040ae4:	00c00044 	movi	r3,1
 2040ae8:	00808234 	movhi	r2,520
 2040aec:	108c1004 	addi	r2,r2,12352
 2040af0:	10c00035 	stwio	r3,0(r2)
				IOWR_ALTERA_AVALON_PIO_DATA(ACTIVATIONS_INDEX_BASE, ki);
				IOWR_ALTERA_AVALON_PIO_DATA(SYNC_DATA_BASE, (1<<5));
				IOWR_ALTERA_AVALON_PIO_DATA(SYNC_DATA_BASE,0);
		    	IOWR_ALTERA_AVALON_PIO_DATA(SYNC_DATA_BASE,1);

				for (kj = 0; kj < 784; kj++) {
 2040af4:	e0bfa417 	ldw	r2,-368(fp)
 2040af8:	10800044 	addi	r2,r2,1
 2040afc:	e0bfa415 	stw	r2,-368(fp)
 2040b00:	e0bfa417 	ldw	r2,-368(fp)
 2040b04:	1080c410 	cmplti	r2,r2,784
 2040b08:	103fd31e 	bne	r2,zero,2040a58 <__alt_data_end+0xfffc0a58>
		    	IOWR_ALTERA_AVALON_PIO_DATA(ACTIVATIONS_INDEX_BASE, ki);
		    	IOWR_ALTERA_AVALON_PIO_DATA(FLOATDATA_OUTPUT_BASE, ui);
		    }


			for (ki = 0; ki < 10; ki++) {
 2040b0c:	e0bfa317 	ldw	r2,-372(fp)
 2040b10:	10800044 	addi	r2,r2,1
 2040b14:	e0bfa315 	stw	r2,-372(fp)
 2040b18:	e0bfa317 	ldw	r2,-372(fp)
 2040b1c:	10800290 	cmplti	r2,r2,10
 2040b20:	103fbb1e 	bne	r2,zero,2040a10 <__alt_data_end+0xfffc0a10>
				}

			}


			for (ki = 0; ki < MNIST_LABELS; ki++) {
 2040b24:	e03fa315 	stw	zero,-372(fp)
 2040b28:	00001d06 	br	2040ba0 <step_version+0x494>
				IOWR_ALTERA_AVALON_PIO_DATA(ACTIVATIONS_INDEX_BASE, ki);
 2040b2c:	00808234 	movhi	r2,520
 2040b30:	108c0004 	addi	r2,r2,12288
 2040b34:	e0ffa317 	ldw	r3,-372(fp)
 2040b38:	10c00035 	stwio	r3,0(r2)
		    	IOWR_ALTERA_AVALON_PIO_DATA(SYNC_DATA_BASE,0);
 2040b3c:	0007883a 	mov	r3,zero
 2040b40:	00808234 	movhi	r2,520
 2040b44:	108c1004 	addi	r2,r2,12352
 2040b48:	10c00035 	stwio	r3,0(r2)
		    	IOWR_ALTERA_AVALON_PIO_DATA(SYNC_DATA_BASE,1);
 2040b4c:	00c00044 	movi	r3,1
 2040b50:	00808234 	movhi	r2,520
 2040b54:	108c1004 	addi	r2,r2,12352
 2040b58:	10c00035 	stwio	r3,0(r2)
		    	unsigned int a = IORD_ALTERA_AVALON_PIO_DATA(RESULTS_INPUT_BASE);
 2040b5c:	00808234 	movhi	r2,520
 2040b60:	108c0404 	addi	r2,r2,12304
 2040b64:	10800037 	ldwio	r2,0(r2)
 2040b68:	e0bfab15 	stw	r2,-340(fp)
		    	activations[ki] = ConvertNumberToFloat(a);
 2040b6c:	e13fab17 	ldw	r4,-340(fp)
 2040b70:	204049c0 	call	204049c <ConvertNumberToFloat>
 2040b74:	1007883a 	mov	r3,r2
 2040b78:	e0bfa317 	ldw	r2,-372(fp)
 2040b7c:	1085883a 	add	r2,r2,r2
 2040b80:	1085883a 	add	r2,r2,r2
 2040b84:	e13f9d04 	addi	r4,fp,-396
 2040b88:	2085883a 	add	r2,r4,r2
 2040b8c:	10801004 	addi	r2,r2,64
 2040b90:	10c00015 	stw	r3,0(r2)
				}

			}


			for (ki = 0; ki < MNIST_LABELS; ki++) {
 2040b94:	e0bfa317 	ldw	r2,-372(fp)
 2040b98:	10800044 	addi	r2,r2,1
 2040b9c:	e0bfa315 	stw	r2,-372(fp)
 2040ba0:	e0bfa317 	ldw	r2,-372(fp)
 2040ba4:	10800290 	cmplti	r2,r2,10
 2040ba8:	103fe01e 	bne	r2,zero,2040b2c <__alt_data_end+0xfffc0b2c>
		    	unsigned int a = IORD_ALTERA_AVALON_PIO_DATA(RESULTS_INPUT_BASE);
		    	activations[ki] = ConvertNumberToFloat(a);
			}


		    for (ki = 1, kmax = activations[0]; ki < MNIST_LABELS; ki++) {
 2040bac:	00800044 	movi	r2,1
 2040bb0:	e0bfa315 	stw	r2,-372(fp)
 2040bb4:	e0bfad17 	ldw	r2,-332(fp)
 2040bb8:	e0bfa615 	stw	r2,-360(fp)
 2040bbc:	00001606 	br	2040c18 <step_version+0x50c>
		        if (activations[ki] > kmax) {
 2040bc0:	e0bfa317 	ldw	r2,-372(fp)
 2040bc4:	1085883a 	add	r2,r2,r2
 2040bc8:	1085883a 	add	r2,r2,r2
 2040bcc:	e0ff9d04 	addi	r3,fp,-396
 2040bd0:	1885883a 	add	r2,r3,r2
 2040bd4:	10801004 	addi	r2,r2,64
 2040bd8:	10c00017 	ldw	r3,0(r2)
 2040bdc:	e17fa617 	ldw	r5,-360(fp)
 2040be0:	1809883a 	mov	r4,r3
 2040be4:	204c5200 	call	204c520 <__gesf2>
 2040be8:	0080080e 	bge	zero,r2,2040c0c <step_version+0x500>
		            kmax = activations[ki];
 2040bec:	e0bfa317 	ldw	r2,-372(fp)
 2040bf0:	1085883a 	add	r2,r2,r2
 2040bf4:	1085883a 	add	r2,r2,r2
 2040bf8:	e13f9d04 	addi	r4,fp,-396
 2040bfc:	2085883a 	add	r2,r4,r2
 2040c00:	10801004 	addi	r2,r2,64
 2040c04:	10800017 	ldw	r2,0(r2)
 2040c08:	e0bfa615 	stw	r2,-360(fp)
		    	unsigned int a = IORD_ALTERA_AVALON_PIO_DATA(RESULTS_INPUT_BASE);
		    	activations[ki] = ConvertNumberToFloat(a);
			}


		    for (ki = 1, kmax = activations[0]; ki < MNIST_LABELS; ki++) {
 2040c0c:	e0bfa317 	ldw	r2,-372(fp)
 2040c10:	10800044 	addi	r2,r2,1
 2040c14:	e0bfa315 	stw	r2,-372(fp)
 2040c18:	e0bfa317 	ldw	r2,-372(fp)
 2040c1c:	10800290 	cmplti	r2,r2,10
 2040c20:	103fe71e 	bne	r2,zero,2040bc0 <__alt_data_end+0xfffc0bc0>
		        if (activations[ki] > kmax) {
		            kmax = activations[ki];
		        }
		    }

		    for (ki = 0, ksum = 0; ki < MNIST_LABELS; ki++) {
 2040c24:	e03fa315 	stw	zero,-372(fp)
 2040c28:	e03fa515 	stw	zero,-364(fp)
 2040c2c:	00002f06 	br	2040cec <step_version+0x5e0>
		        activations[ki] = exp(activations[ki] - kmax);
 2040c30:	e0bfa317 	ldw	r2,-372(fp)
 2040c34:	1085883a 	add	r2,r2,r2
 2040c38:	1085883a 	add	r2,r2,r2
 2040c3c:	e0ff9d04 	addi	r3,fp,-396
 2040c40:	1885883a 	add	r2,r3,r2
 2040c44:	10801004 	addi	r2,r2,64
 2040c48:	10c00017 	ldw	r3,0(r2)
 2040c4c:	e17fa617 	ldw	r5,-360(fp)
 2040c50:	1809883a 	mov	r4,r3
 2040c54:	204c9d80 	call	204c9d8 <__subsf3>
 2040c58:	1007883a 	mov	r3,r2
 2040c5c:	1805883a 	mov	r2,r3
 2040c60:	1009883a 	mov	r4,r2
 2040c64:	204f62c0 	call	204f62c <__extendsfdf2>
 2040c68:	100b883a 	mov	r5,r2
 2040c6c:	180d883a 	mov	r6,r3
 2040c70:	2809883a 	mov	r4,r5
 2040c74:	300b883a 	mov	r5,r6
 2040c78:	20497a00 	call	20497a0 <exp>
 2040c7c:	100b883a 	mov	r5,r2
 2040c80:	180d883a 	mov	r6,r3
 2040c84:	2809883a 	mov	r4,r5
 2040c88:	300b883a 	mov	r5,r6
 2040c8c:	204f73c0 	call	204f73c <__truncdfsf2>
 2040c90:	1007883a 	mov	r3,r2
 2040c94:	e0bfa317 	ldw	r2,-372(fp)
 2040c98:	1085883a 	add	r2,r2,r2
 2040c9c:	1085883a 	add	r2,r2,r2
 2040ca0:	e13f9d04 	addi	r4,fp,-396
 2040ca4:	2085883a 	add	r2,r4,r2
 2040ca8:	10801004 	addi	r2,r2,64
 2040cac:	10c00015 	stw	r3,0(r2)
		        ksum += activations[ki];
 2040cb0:	e0bfa317 	ldw	r2,-372(fp)
 2040cb4:	1085883a 	add	r2,r2,r2
 2040cb8:	1085883a 	add	r2,r2,r2
 2040cbc:	e0ff9d04 	addi	r3,fp,-396
 2040cc0:	1885883a 	add	r2,r3,r2
 2040cc4:	10801004 	addi	r2,r2,64
 2040cc8:	10c00017 	ldw	r3,0(r2)
 2040ccc:	180b883a 	mov	r5,r3
 2040cd0:	e13fa517 	ldw	r4,-364(fp)
 2040cd4:	204bc180 	call	204bc18 <__addsf3>
 2040cd8:	1007883a 	mov	r3,r2
 2040cdc:	e0ffa515 	stw	r3,-364(fp)
		        if (activations[ki] > kmax) {
		            kmax = activations[ki];
		        }
		    }

		    for (ki = 0, ksum = 0; ki < MNIST_LABELS; ki++) {
 2040ce0:	e0bfa317 	ldw	r2,-372(fp)
 2040ce4:	10800044 	addi	r2,r2,1
 2040ce8:	e0bfa315 	stw	r2,-372(fp)
 2040cec:	e0bfa317 	ldw	r2,-372(fp)
 2040cf0:	10800290 	cmplti	r2,r2,10
 2040cf4:	103fce1e 	bne	r2,zero,2040c30 <__alt_data_end+0xfffc0c30>
		        activations[ki] = exp(activations[ki] - kmax);
		        ksum += activations[ki];
		    }

		    for (ki = 0; ki < MNIST_LABELS; ki++) {
 2040cf8:	e03fa315 	stw	zero,-372(fp)
 2040cfc:	00001606 	br	2040d58 <step_version+0x64c>
		        activations[ki] /= ksum;
 2040d00:	e0bfa317 	ldw	r2,-372(fp)
 2040d04:	1085883a 	add	r2,r2,r2
 2040d08:	1085883a 	add	r2,r2,r2
 2040d0c:	e13f9d04 	addi	r4,fp,-396
 2040d10:	2085883a 	add	r2,r4,r2
 2040d14:	10801004 	addi	r2,r2,64
 2040d18:	10c00017 	ldw	r3,0(r2)
 2040d1c:	e17fa517 	ldw	r5,-364(fp)
 2040d20:	1809883a 	mov	r4,r3
 2040d24:	204c0e00 	call	204c0e0 <__divsf3>
 2040d28:	1009883a 	mov	r4,r2
 2040d2c:	2007883a 	mov	r3,r4
 2040d30:	e0bfa317 	ldw	r2,-372(fp)
 2040d34:	1085883a 	add	r2,r2,r2
 2040d38:	1085883a 	add	r2,r2,r2
 2040d3c:	e13f9d04 	addi	r4,fp,-396
 2040d40:	2085883a 	add	r2,r4,r2
 2040d44:	10801004 	addi	r2,r2,64
 2040d48:	10c00015 	stw	r3,0(r2)
		    for (ki = 0, ksum = 0; ki < MNIST_LABELS; ki++) {
		        activations[ki] = exp(activations[ki] - kmax);
		        ksum += activations[ki];
		    }

		    for (ki = 0; ki < MNIST_LABELS; ki++) {
 2040d4c:	e0bfa317 	ldw	r2,-372(fp)
 2040d50:	10800044 	addi	r2,r2,1
 2040d54:	e0bfa315 	stw	r2,-372(fp)
 2040d58:	e0bfa317 	ldw	r2,-372(fp)
 2040d5c:	10800290 	cmplti	r2,r2,10
 2040d60:	103fe71e 	bne	r2,zero,2040d00 <__alt_data_end+0xfffc0d00>
		        activations[ki] /= ksum;
		    }

			// Set predict to the index of the greatest activation
			for (j = 0, predict = 0, max_activation = activations[0]; j < MNIST_LABELS; j++) {
 2040d64:	e03fa015 	stw	zero,-384(fp)
 2040d68:	e03fa115 	stw	zero,-380(fp)
 2040d6c:	e0bfad17 	ldw	r2,-332(fp)
 2040d70:	e0bf9d15 	stw	r2,-396(fp)
 2040d74:	00001806 	br	2040dd8 <step_version+0x6cc>
				if (max_activation < activations[j]) {
 2040d78:	e0bfa017 	ldw	r2,-384(fp)
 2040d7c:	1085883a 	add	r2,r2,r2
 2040d80:	1085883a 	add	r2,r2,r2
 2040d84:	e0ff9d04 	addi	r3,fp,-396
 2040d88:	1885883a 	add	r2,r3,r2
 2040d8c:	10801004 	addi	r2,r2,64
 2040d90:	10c00017 	ldw	r3,0(r2)
 2040d94:	e17f9d17 	ldw	r5,-396(fp)
 2040d98:	1809883a 	mov	r4,r3
 2040d9c:	204c5200 	call	204c520 <__gesf2>
 2040da0:	00800a0e 	bge	zero,r2,2040dcc <step_version+0x6c0>
					max_activation = activations[j];
 2040da4:	e0bfa017 	ldw	r2,-384(fp)
 2040da8:	1085883a 	add	r2,r2,r2
 2040dac:	1085883a 	add	r2,r2,r2
 2040db0:	e13f9d04 	addi	r4,fp,-396
 2040db4:	2085883a 	add	r2,r4,r2
 2040db8:	10801004 	addi	r2,r2,64
 2040dbc:	10800017 	ldw	r2,0(r2)
 2040dc0:	e0bf9d15 	stw	r2,-396(fp)
					predict = j;
 2040dc4:	e0bfa017 	ldw	r2,-384(fp)
 2040dc8:	e0bfa115 	stw	r2,-380(fp)
		    for (ki = 0; ki < MNIST_LABELS; ki++) {
		        activations[ki] /= ksum;
		    }

			// Set predict to the index of the greatest activation
			for (j = 0, predict = 0, max_activation = activations[0]; j < MNIST_LABELS; j++) {
 2040dcc:	e0bfa017 	ldw	r2,-384(fp)
 2040dd0:	10800044 	addi	r2,r2,1
 2040dd4:	e0bfa015 	stw	r2,-384(fp)
 2040dd8:	e0bfa017 	ldw	r2,-384(fp)
 2040ddc:	10800290 	cmplti	r2,r2,10
 2040de0:	103fe51e 	bne	r2,zero,2040d78 <__alt_data_end+0xfffc0d78>
					max_activation = activations[j];
					predict = j;
				}
			}

			time = alt_timestamp();
 2040de4:	20403080 	call	2040308 <alt_timestamp>
 2040de8:	1009883a 	mov	r4,r2
 2040dec:	204cfe00 	call	204cfe0 <__floatunsisf>
 2040df0:	1007883a 	mov	r3,r2
 2040df4:	e0ffa815 	stw	r3,-352(fp)
			freq = alt_timestamp_freq();
 2040df8:	20403880 	call	2040388 <alt_timestamp_freq>
 2040dfc:	1009883a 	mov	r4,r2
 2040e00:	204cfe00 	call	204cfe0 <__floatunsisf>
 2040e04:	1007883a 	mov	r3,r2
 2040e08:	e0ffac15 	stw	r3,-336(fp)
			time = (time *1000 ) / freq; //get execution time (ms)
 2040e0c:	01511eb4 	movhi	r5,17530
 2040e10:	e13fa817 	ldw	r4,-352(fp)
 2040e14:	204c5dc0 	call	204c5dc <__mulsf3>
 2040e18:	1007883a 	mov	r3,r2
 2040e1c:	1805883a 	mov	r2,r3
 2040e20:	e17fac17 	ldw	r5,-336(fp)
 2040e24:	1009883a 	mov	r4,r2
 2040e28:	204c0e00 	call	204c0e0 <__divsf3>
 2040e2c:	1007883a 	mov	r3,r2
 2040e30:	e0ffa815 	stw	r3,-352(fp)
			avgtime += time;
 2040e34:	e17fa817 	ldw	r5,-352(fp)
 2040e38:	e13f9e17 	ldw	r4,-392(fp)
 2040e3c:	204bc180 	call	204bc18 <__addsf3>
 2040e40:	1007883a 	mov	r3,r2
 2040e44:	e0ff9e15 	stw	r3,-392(fp)

			displayimage(pixels,predict,label,time);
 2040e48:	e1ffa817 	ldw	r7,-352(fp)
 2040e4c:	e1bfaa17 	ldw	r6,-344(fp)
 2040e50:	e17fa117 	ldw	r5,-380(fp)
 2040e54:	e13fa917 	ldw	r4,-348(fp)
 2040e58:	20440f40 	call	20440f4 <displayimage>
			i++;
 2040e5c:	e0bf9f17 	ldw	r2,-388(fp)
 2040e60:	10800044 	addi	r2,r2,1
 2040e64:	e0bf9f15 	stw	r2,-388(fp)

			if(label == predict){
 2040e68:	e0ffaa17 	ldw	r3,-344(fp)
 2040e6c:	e0bfa117 	ldw	r2,-380(fp)
 2040e70:	1880141e 	bne	r3,r2,2040ec4 <step_version+0x7b8>
				TP[label]+=1;
 2040e74:	e0bfaa17 	ldw	r2,-344(fp)
 2040e78:	1085883a 	add	r2,r2,r2
 2040e7c:	1085883a 	add	r2,r2,r2
 2040e80:	e0ff9d04 	addi	r3,fp,-396
 2040e84:	1885883a 	add	r2,r3,r2
 2040e88:	10802804 	addi	r2,r2,160
 2040e8c:	10c00017 	ldw	r3,0(r2)
 2040e90:	014fe034 	movhi	r5,16256
 2040e94:	1809883a 	mov	r4,r3
 2040e98:	204bc180 	call	204bc18 <__addsf3>
 2040e9c:	1009883a 	mov	r4,r2
 2040ea0:	2007883a 	mov	r3,r4
 2040ea4:	e0bfaa17 	ldw	r2,-344(fp)
 2040ea8:	1085883a 	add	r2,r2,r2
 2040eac:	1085883a 	add	r2,r2,r2
 2040eb0:	e13f9d04 	addi	r4,fp,-396
 2040eb4:	2085883a 	add	r2,r4,r2
 2040eb8:	10802804 	addi	r2,r2,160
 2040ebc:	10c00015 	stw	r3,0(r2)
 2040ec0:	00002606 	br	2040f5c <step_version+0x850>
			}
			else{
				FN[label]+=1;
 2040ec4:	e0bfaa17 	ldw	r2,-344(fp)
 2040ec8:	1085883a 	add	r2,r2,r2
 2040ecc:	1085883a 	add	r2,r2,r2
 2040ed0:	e0ff9d04 	addi	r3,fp,-396
 2040ed4:	1885883a 	add	r2,r3,r2
 2040ed8:	10801e04 	addi	r2,r2,120
 2040edc:	10c00017 	ldw	r3,0(r2)
 2040ee0:	014fe034 	movhi	r5,16256
 2040ee4:	1809883a 	mov	r4,r3
 2040ee8:	204bc180 	call	204bc18 <__addsf3>
 2040eec:	1009883a 	mov	r4,r2
 2040ef0:	2007883a 	mov	r3,r4
 2040ef4:	e0bfaa17 	ldw	r2,-344(fp)
 2040ef8:	1085883a 	add	r2,r2,r2
 2040efc:	1085883a 	add	r2,r2,r2
 2040f00:	e13f9d04 	addi	r4,fp,-396
 2040f04:	2085883a 	add	r2,r4,r2
 2040f08:	10801e04 	addi	r2,r2,120
 2040f0c:	10c00015 	stw	r3,0(r2)
				FP[predict]+=1;
 2040f10:	e0bfa117 	ldw	r2,-380(fp)
 2040f14:	1085883a 	add	r2,r2,r2
 2040f18:	1085883a 	add	r2,r2,r2
 2040f1c:	e0ff9d04 	addi	r3,fp,-396
 2040f20:	1885883a 	add	r2,r3,r2
 2040f24:	10803204 	addi	r2,r2,200
 2040f28:	10c00017 	ldw	r3,0(r2)
 2040f2c:	014fe034 	movhi	r5,16256
 2040f30:	1809883a 	mov	r4,r3
 2040f34:	204bc180 	call	204bc18 <__addsf3>
 2040f38:	1009883a 	mov	r4,r2
 2040f3c:	2007883a 	mov	r3,r4
 2040f40:	e0bfa117 	ldw	r2,-380(fp)
 2040f44:	1085883a 	add	r2,r2,r2
 2040f48:	1085883a 	add	r2,r2,r2
 2040f4c:	e13f9d04 	addi	r4,fp,-396
 2040f50:	2085883a 	add	r2,r4,r2
 2040f54:	10803204 	addi	r2,r2,200
 2040f58:	10c00015 	stw	r3,0(r2)
			}

		}

		if(IORD_ALTERA_AVALON_PIO_DATA(KEY_BASE) == 13)
 2040f5c:	00808234 	movhi	r2,520
 2040f60:	108c1804 	addi	r2,r2,12384
 2040f64:	10800037 	ldwio	r2,0(r2)
 2040f68:	10800358 	cmpnei	r2,r2,13
 2040f6c:	10000126 	beq	r2,zero,2040f74 <step_version+0x868>
			break;
	}
 2040f70:	003e3a06 	br	204085c <__alt_data_end+0xfffc085c>
			}

		}

		if(IORD_ALTERA_AVALON_PIO_DATA(KEY_BASE) == 13)
			break;
 2040f74:	0001883a 	nop
	}



	alt_up_char_buffer_clear(char_buffer);
 2040f78:	e13fa717 	ldw	r4,-356(fp)
 2040f7c:	20611ac0 	call	20611ac <alt_up_char_buffer_clear>

	avgtime = avgtime/(i+1);
 2040f80:	e0bf9f17 	ldw	r2,-388(fp)
 2040f84:	10800044 	addi	r2,r2,1
 2040f88:	1009883a 	mov	r4,r2
 2040f8c:	204cebc0 	call	204cebc <__floatsisf>
 2040f90:	1007883a 	mov	r3,r2
 2040f94:	180b883a 	mov	r5,r3
 2040f98:	e13f9e17 	ldw	r4,-392(fp)
 2040f9c:	204c0e00 	call	204c0e0 <__divsf3>
 2040fa0:	1007883a 	mov	r3,r2
 2040fa4:	e0ff9e15 	stw	r3,-392(fp)
	char str[20];

	alt_up_char_buffer_string(char_buffer ,"Statistics: ",28,5);
 2040fa8:	01c00144 	movi	r7,5
 2040fac:	01800704 	movi	r6,28
 2040fb0:	014081b4 	movhi	r5,518
 2040fb4:	294ae804 	addi	r5,r5,11168
 2040fb8:	e13fa717 	ldw	r4,-356(fp)
 2040fbc:	20610b00 	call	20610b0 <alt_up_char_buffer_string>
	alt_up_char_buffer_string(char_buffer ,"Avg time per sample:",28,15);
 2040fc0:	01c003c4 	movi	r7,15
 2040fc4:	01800704 	movi	r6,28
 2040fc8:	014081b4 	movhi	r5,518
 2040fcc:	294aec04 	addi	r5,r5,11184
 2040fd0:	e13fa717 	ldw	r4,-356(fp)
 2040fd4:	20610b00 	call	20610b0 <alt_up_char_buffer_string>
	sprintf(str, "%.3f ms", avgtime);
 2040fd8:	e13f9e17 	ldw	r4,-392(fp)
 2040fdc:	204f62c0 	call	204f62c <__extendsfdf2>
 2040fe0:	1009883a 	mov	r4,r2
 2040fe4:	180b883a 	mov	r5,r3
 2040fe8:	e0bff704 	addi	r2,fp,-36
 2040fec:	200d883a 	mov	r6,r4
 2040ff0:	280f883a 	mov	r7,r5
 2040ff4:	014081b4 	movhi	r5,518
 2040ff8:	294af204 	addi	r5,r5,11208
 2040ffc:	1009883a 	mov	r4,r2
 2041000:	20507dc0 	call	20507dc <sprintf>
	alt_up_char_buffer_string(char_buffer ,str,28+30,15);
 2041004:	e0bff704 	addi	r2,fp,-36
 2041008:	01c003c4 	movi	r7,15
 204100c:	01800e84 	movi	r6,58
 2041010:	100b883a 	mov	r5,r2
 2041014:	e13fa717 	ldw	r4,-356(fp)
 2041018:	20610b00 	call	20610b0 <alt_up_char_buffer_string>

	alt_up_char_buffer_string(char_buffer ,"label",10,22);
 204101c:	01c00584 	movi	r7,22
 2041020:	01800284 	movi	r6,10
 2041024:	014081b4 	movhi	r5,518
 2041028:	294af404 	addi	r5,r5,11216
 204102c:	e13fa717 	ldw	r4,-356(fp)
 2041030:	20610b00 	call	20610b0 <alt_up_char_buffer_string>
	alt_up_char_buffer_string(char_buffer ,"Precision",25,22);
 2041034:	01c00584 	movi	r7,22
 2041038:	01800644 	movi	r6,25
 204103c:	014081b4 	movhi	r5,518
 2041040:	294af604 	addi	r5,r5,11224
 2041044:	e13fa717 	ldw	r4,-356(fp)
 2041048:	20610b00 	call	20610b0 <alt_up_char_buffer_string>
	alt_up_char_buffer_string(char_buffer ,"Recall",40,22);
 204104c:	01c00584 	movi	r7,22
 2041050:	01800a04 	movi	r6,40
 2041054:	014081b4 	movhi	r5,518
 2041058:	294af904 	addi	r5,r5,11236
 204105c:	e13fa717 	ldw	r4,-356(fp)
 2041060:	20610b00 	call	20610b0 <alt_up_char_buffer_string>
	alt_up_char_buffer_string(char_buffer ,"F1 Score",55,22);
 2041064:	01c00584 	movi	r7,22
 2041068:	01800dc4 	movi	r6,55
 204106c:	014081b4 	movhi	r5,518
 2041070:	294afb04 	addi	r5,r5,11244
 2041074:	e13fa717 	ldw	r4,-356(fp)
 2041078:	20610b00 	call	20610b0 <alt_up_char_buffer_string>

	for (i = 0; i<10; i++){
 204107c:	e03f9f15 	stw	zero,-388(fp)
 2041080:	0000e606 	br	204141c <step_version+0xd10>
		sprintf(str, "|%d ->", i);
 2041084:	e0bff704 	addi	r2,fp,-36
 2041088:	e1bf9f17 	ldw	r6,-388(fp)
 204108c:	014081b4 	movhi	r5,518
 2041090:	294afe04 	addi	r5,r5,11256
 2041094:	1009883a 	mov	r4,r2
 2041098:	20507dc0 	call	20507dc <sprintf>
		alt_up_char_buffer_string(char_buffer ,str,10,24+i);
 204109c:	e0bf9f17 	ldw	r2,-388(fp)
 20410a0:	10800604 	addi	r2,r2,24
 20410a4:	1007883a 	mov	r3,r2
 20410a8:	e0bff704 	addi	r2,fp,-36
 20410ac:	180f883a 	mov	r7,r3
 20410b0:	01800284 	movi	r6,10
 20410b4:	100b883a 	mov	r5,r2
 20410b8:	e13fa717 	ldw	r4,-356(fp)
 20410bc:	20610b00 	call	20610b0 <alt_up_char_buffer_string>

		precision[i]=TP[i]/(TP[i]+FP[i]);
 20410c0:	e0bf9f17 	ldw	r2,-388(fp)
 20410c4:	1085883a 	add	r2,r2,r2
 20410c8:	1085883a 	add	r2,r2,r2
 20410cc:	e0ff9d04 	addi	r3,fp,-396
 20410d0:	1885883a 	add	r2,r3,r2
 20410d4:	10802804 	addi	r2,r2,160
 20410d8:	14000017 	ldw	r16,0(r2)
 20410dc:	e0bf9f17 	ldw	r2,-388(fp)
 20410e0:	1085883a 	add	r2,r2,r2
 20410e4:	1085883a 	add	r2,r2,r2
 20410e8:	e13f9d04 	addi	r4,fp,-396
 20410ec:	2085883a 	add	r2,r4,r2
 20410f0:	10802804 	addi	r2,r2,160
 20410f4:	10c00017 	ldw	r3,0(r2)
 20410f8:	e0bf9f17 	ldw	r2,-388(fp)
 20410fc:	1085883a 	add	r2,r2,r2
 2041100:	1085883a 	add	r2,r2,r2
 2041104:	e13f9d04 	addi	r4,fp,-396
 2041108:	2085883a 	add	r2,r4,r2
 204110c:	10803204 	addi	r2,r2,200
 2041110:	11000017 	ldw	r4,0(r2)
 2041114:	200b883a 	mov	r5,r4
 2041118:	1809883a 	mov	r4,r3
 204111c:	204bc180 	call	204bc18 <__addsf3>
 2041120:	1007883a 	mov	r3,r2
 2041124:	1805883a 	mov	r2,r3
 2041128:	100b883a 	mov	r5,r2
 204112c:	8009883a 	mov	r4,r16
 2041130:	204c0e00 	call	204c0e0 <__divsf3>
 2041134:	1009883a 	mov	r4,r2
 2041138:	2007883a 	mov	r3,r4
 204113c:	e0bf9f17 	ldw	r2,-388(fp)
 2041140:	1085883a 	add	r2,r2,r2
 2041144:	1085883a 	add	r2,r2,r2
 2041148:	e13f9d04 	addi	r4,fp,-396
 204114c:	2085883a 	add	r2,r4,r2
 2041150:	10803c04 	addi	r2,r2,240
 2041154:	10c00015 	stw	r3,0(r2)
		sprintf(str, "%.2f", precision[i]);
 2041158:	e0bf9f17 	ldw	r2,-388(fp)
 204115c:	1085883a 	add	r2,r2,r2
 2041160:	1085883a 	add	r2,r2,r2
 2041164:	e0ff9d04 	addi	r3,fp,-396
 2041168:	1885883a 	add	r2,r3,r2
 204116c:	10803c04 	addi	r2,r2,240
 2041170:	10c00017 	ldw	r3,0(r2)
 2041174:	1809883a 	mov	r4,r3
 2041178:	204f62c0 	call	204f62c <__extendsfdf2>
 204117c:	1009883a 	mov	r4,r2
 2041180:	180b883a 	mov	r5,r3
 2041184:	e0bff704 	addi	r2,fp,-36
 2041188:	200d883a 	mov	r6,r4
 204118c:	280f883a 	mov	r7,r5
 2041190:	014081b4 	movhi	r5,518
 2041194:	294b0004 	addi	r5,r5,11264
 2041198:	1009883a 	mov	r4,r2
 204119c:	20507dc0 	call	20507dc <sprintf>
		alt_up_char_buffer_string(char_buffer ,str,25,24+i);
 20411a0:	e0bf9f17 	ldw	r2,-388(fp)
 20411a4:	10800604 	addi	r2,r2,24
 20411a8:	1007883a 	mov	r3,r2
 20411ac:	e0bff704 	addi	r2,fp,-36
 20411b0:	180f883a 	mov	r7,r3
 20411b4:	01800644 	movi	r6,25
 20411b8:	100b883a 	mov	r5,r2
 20411bc:	e13fa717 	ldw	r4,-356(fp)
 20411c0:	20610b00 	call	20610b0 <alt_up_char_buffer_string>

		recall[i]=TP[i]/(TP[i]+FN[i]);
 20411c4:	e0bf9f17 	ldw	r2,-388(fp)
 20411c8:	1085883a 	add	r2,r2,r2
 20411cc:	1085883a 	add	r2,r2,r2
 20411d0:	e13f9d04 	addi	r4,fp,-396
 20411d4:	2085883a 	add	r2,r4,r2
 20411d8:	10802804 	addi	r2,r2,160
 20411dc:	14000017 	ldw	r16,0(r2)
 20411e0:	e0bf9f17 	ldw	r2,-388(fp)
 20411e4:	1085883a 	add	r2,r2,r2
 20411e8:	1085883a 	add	r2,r2,r2
 20411ec:	e0ff9d04 	addi	r3,fp,-396
 20411f0:	1885883a 	add	r2,r3,r2
 20411f4:	10802804 	addi	r2,r2,160
 20411f8:	10c00017 	ldw	r3,0(r2)
 20411fc:	e0bf9f17 	ldw	r2,-388(fp)
 2041200:	1085883a 	add	r2,r2,r2
 2041204:	1085883a 	add	r2,r2,r2
 2041208:	e13f9d04 	addi	r4,fp,-396
 204120c:	2085883a 	add	r2,r4,r2
 2041210:	10801e04 	addi	r2,r2,120
 2041214:	11000017 	ldw	r4,0(r2)
 2041218:	200b883a 	mov	r5,r4
 204121c:	1809883a 	mov	r4,r3
 2041220:	204bc180 	call	204bc18 <__addsf3>
 2041224:	1007883a 	mov	r3,r2
 2041228:	1805883a 	mov	r2,r3
 204122c:	100b883a 	mov	r5,r2
 2041230:	8009883a 	mov	r4,r16
 2041234:	204c0e00 	call	204c0e0 <__divsf3>
 2041238:	1009883a 	mov	r4,r2
 204123c:	2007883a 	mov	r3,r4
 2041240:	e0bf9f17 	ldw	r2,-388(fp)
 2041244:	1085883a 	add	r2,r2,r2
 2041248:	1085883a 	add	r2,r2,r2
 204124c:	e13f9d04 	addi	r4,fp,-396
 2041250:	2085883a 	add	r2,r4,r2
 2041254:	10804604 	addi	r2,r2,280
 2041258:	10c00015 	stw	r3,0(r2)
		sprintf(str, "%.2f", recall[i]);
 204125c:	e0bf9f17 	ldw	r2,-388(fp)
 2041260:	1085883a 	add	r2,r2,r2
 2041264:	1085883a 	add	r2,r2,r2
 2041268:	e0ff9d04 	addi	r3,fp,-396
 204126c:	1885883a 	add	r2,r3,r2
 2041270:	10804604 	addi	r2,r2,280
 2041274:	10c00017 	ldw	r3,0(r2)
 2041278:	1809883a 	mov	r4,r3
 204127c:	204f62c0 	call	204f62c <__extendsfdf2>
 2041280:	1009883a 	mov	r4,r2
 2041284:	180b883a 	mov	r5,r3
 2041288:	e0bff704 	addi	r2,fp,-36
 204128c:	200d883a 	mov	r6,r4
 2041290:	280f883a 	mov	r7,r5
 2041294:	014081b4 	movhi	r5,518
 2041298:	294b0004 	addi	r5,r5,11264
 204129c:	1009883a 	mov	r4,r2
 20412a0:	20507dc0 	call	20507dc <sprintf>
		alt_up_char_buffer_string(char_buffer ,str,40,24+i);
 20412a4:	e0bf9f17 	ldw	r2,-388(fp)
 20412a8:	10800604 	addi	r2,r2,24
 20412ac:	1007883a 	mov	r3,r2
 20412b0:	e0bff704 	addi	r2,fp,-36
 20412b4:	180f883a 	mov	r7,r3
 20412b8:	01800a04 	movi	r6,40
 20412bc:	100b883a 	mov	r5,r2
 20412c0:	e13fa717 	ldw	r4,-356(fp)
 20412c4:	20610b00 	call	20610b0 <alt_up_char_buffer_string>

		f1scores[i]=2*((precision[i]*recall[i])/(precision[i]+recall[i]));
 20412c8:	e0bf9f17 	ldw	r2,-388(fp)
 20412cc:	1085883a 	add	r2,r2,r2
 20412d0:	1085883a 	add	r2,r2,r2
 20412d4:	e13f9d04 	addi	r4,fp,-396
 20412d8:	2085883a 	add	r2,r4,r2
 20412dc:	10803c04 	addi	r2,r2,240
 20412e0:	10c00017 	ldw	r3,0(r2)
 20412e4:	e0bf9f17 	ldw	r2,-388(fp)
 20412e8:	1085883a 	add	r2,r2,r2
 20412ec:	1085883a 	add	r2,r2,r2
 20412f0:	e13f9d04 	addi	r4,fp,-396
 20412f4:	2085883a 	add	r2,r4,r2
 20412f8:	10804604 	addi	r2,r2,280
 20412fc:	11000017 	ldw	r4,0(r2)
 2041300:	200b883a 	mov	r5,r4
 2041304:	1809883a 	mov	r4,r3
 2041308:	204c5dc0 	call	204c5dc <__mulsf3>
 204130c:	1007883a 	mov	r3,r2
 2041310:	1821883a 	mov	r16,r3
 2041314:	e0bf9f17 	ldw	r2,-388(fp)
 2041318:	1085883a 	add	r2,r2,r2
 204131c:	1085883a 	add	r2,r2,r2
 2041320:	e0ff9d04 	addi	r3,fp,-396
 2041324:	1885883a 	add	r2,r3,r2
 2041328:	10803c04 	addi	r2,r2,240
 204132c:	10c00017 	ldw	r3,0(r2)
 2041330:	e0bf9f17 	ldw	r2,-388(fp)
 2041334:	1085883a 	add	r2,r2,r2
 2041338:	1085883a 	add	r2,r2,r2
 204133c:	e13f9d04 	addi	r4,fp,-396
 2041340:	2085883a 	add	r2,r4,r2
 2041344:	10804604 	addi	r2,r2,280
 2041348:	11000017 	ldw	r4,0(r2)
 204134c:	200b883a 	mov	r5,r4
 2041350:	1809883a 	mov	r4,r3
 2041354:	204bc180 	call	204bc18 <__addsf3>
 2041358:	1007883a 	mov	r3,r2
 204135c:	1805883a 	mov	r2,r3
 2041360:	100b883a 	mov	r5,r2
 2041364:	8009883a 	mov	r4,r16
 2041368:	204c0e00 	call	204c0e0 <__divsf3>
 204136c:	1007883a 	mov	r3,r2
 2041370:	1805883a 	mov	r2,r3
 2041374:	100b883a 	mov	r5,r2
 2041378:	1009883a 	mov	r4,r2
 204137c:	204bc180 	call	204bc18 <__addsf3>
 2041380:	1009883a 	mov	r4,r2
 2041384:	2007883a 	mov	r3,r4
 2041388:	e0bf9f17 	ldw	r2,-388(fp)
 204138c:	1085883a 	add	r2,r2,r2
 2041390:	1085883a 	add	r2,r2,r2
 2041394:	e13f9d04 	addi	r4,fp,-396
 2041398:	2085883a 	add	r2,r4,r2
 204139c:	10805004 	addi	r2,r2,320
 20413a0:	10c00015 	stw	r3,0(r2)
		sprintf(str, "%.2f", f1scores[i]);
 20413a4:	e0bf9f17 	ldw	r2,-388(fp)
 20413a8:	1085883a 	add	r2,r2,r2
 20413ac:	1085883a 	add	r2,r2,r2
 20413b0:	e0ff9d04 	addi	r3,fp,-396
 20413b4:	1885883a 	add	r2,r3,r2
 20413b8:	10805004 	addi	r2,r2,320
 20413bc:	10c00017 	ldw	r3,0(r2)
 20413c0:	1809883a 	mov	r4,r3
 20413c4:	204f62c0 	call	204f62c <__extendsfdf2>
 20413c8:	1009883a 	mov	r4,r2
 20413cc:	180b883a 	mov	r5,r3
 20413d0:	e0bff704 	addi	r2,fp,-36
 20413d4:	200d883a 	mov	r6,r4
 20413d8:	280f883a 	mov	r7,r5
 20413dc:	014081b4 	movhi	r5,518
 20413e0:	294b0004 	addi	r5,r5,11264
 20413e4:	1009883a 	mov	r4,r2
 20413e8:	20507dc0 	call	20507dc <sprintf>
		alt_up_char_buffer_string(char_buffer ,str,55,24+i);
 20413ec:	e0bf9f17 	ldw	r2,-388(fp)
 20413f0:	10800604 	addi	r2,r2,24
 20413f4:	1007883a 	mov	r3,r2
 20413f8:	e0bff704 	addi	r2,fp,-36
 20413fc:	180f883a 	mov	r7,r3
 2041400:	01800dc4 	movi	r6,55
 2041404:	100b883a 	mov	r5,r2
 2041408:	e13fa717 	ldw	r4,-356(fp)
 204140c:	20610b00 	call	20610b0 <alt_up_char_buffer_string>
	alt_up_char_buffer_string(char_buffer ,"label",10,22);
	alt_up_char_buffer_string(char_buffer ,"Precision",25,22);
	alt_up_char_buffer_string(char_buffer ,"Recall",40,22);
	alt_up_char_buffer_string(char_buffer ,"F1 Score",55,22);

	for (i = 0; i<10; i++){
 2041410:	e0bf9f17 	ldw	r2,-388(fp)
 2041414:	10800044 	addi	r2,r2,1
 2041418:	e0bf9f15 	stw	r2,-388(fp)
 204141c:	e0bf9f17 	ldw	r2,-388(fp)
 2041420:	10800290 	cmplti	r2,r2,10
 2041424:	103f171e 	bne	r2,zero,2041084 <__alt_data_end+0xfffc1084>
		f1scores[i]=2*((precision[i]*recall[i])/(precision[i]+recall[i]));
		sprintf(str, "%.2f", f1scores[i]);
		alt_up_char_buffer_string(char_buffer ,str,55,24+i);
	}

	alt_up_char_buffer_string(char_buffer ,"press key[0] to restart ",28,48);
 2041428:	01c00c04 	movi	r7,48
 204142c:	01800704 	movi	r6,28
 2041430:	014081b4 	movhi	r5,518
 2041434:	294b0204 	addi	r5,r5,11272
 2041438:	e13fa717 	ldw	r4,-356(fp)
 204143c:	20610b00 	call	20610b0 <alt_up_char_buffer_string>

	free(pixels);
 2041440:	e13fa917 	ldw	r4,-348(fp)
 2041444:	204f9840 	call	204f984 <free>
	return 1;
 2041448:	00800044 	movi	r2,1
}
 204144c:	e6ffff04 	addi	sp,fp,-4
 2041450:	dfc00217 	ldw	ra,8(sp)
 2041454:	df000117 	ldw	fp,4(sp)
 2041458:	dc000017 	ldw	r16,0(sp)
 204145c:	dec00704 	addi	sp,sp,28
 2041460:	f800283a 	ret

02041464 <fast_version1>:
//-----------------------------
int fast_version1(const neural_network_t network,FAT_HANDLE hFat, short unsigned int nimages ){
 2041464:	defc7d04 	addi	sp,sp,-3596
 2041468:	dfc37e15 	stw	ra,3576(sp)
 204146c:	df037d15 	stw	fp,3572(sp)
 2041470:	dc037c15 	stw	r16,3568(sp)
 2041474:	df037d04 	addi	fp,sp,3572
 2041478:	e1000215 	stw	r4,8(fp)
 204147c:	e1400315 	stw	r5,12(fp)
 2041480:	e1800415 	stw	r6,16(fp)
 2041484:	e1c00515 	stw	r7,20(fp)
 2041488:	e09ead17 	ldw	r2,31412(fp)
 204148c:	e0bffe0d 	sth	r2,-8(fp)
	int *pixels = NULL;
 2041490:	e03c8c15 	stw	zero,-3536(fp)
	pixels = (int *) malloc(sizeof(int)*784);
 2041494:	01031004 	movi	r4,3136
 2041498:	204f9700 	call	204f970 <malloc>
 204149c:	e0bc8c15 	stw	r2,-3536(fp)
	float FP[10];

	float precision[10];
	float recall[10];
	float f1scores[10];
	for (i = 0; i<10;i++){
 20414a0:	e03c8515 	stw	zero,-3564(fp)
 20414a4:	00002d06 	br	204155c <fast_version1+0xf8>
		precision[i]=0;
 20414a8:	e0bc8517 	ldw	r2,-3564(fp)
 20414ac:	1085883a 	add	r2,r2,r2
 20414b0:	1085883a 	add	r2,r2,r2
 20414b4:	e0fc8304 	addi	r3,fp,-3572
 20414b8:	1885883a 	add	r2,r3,r2
 20414bc:	10804104 	addi	r2,r2,260
 20414c0:	10000015 	stw	zero,0(r2)
		recall[i]=0;
 20414c4:	e0bc8517 	ldw	r2,-3564(fp)
 20414c8:	1085883a 	add	r2,r2,r2
 20414cc:	1085883a 	add	r2,r2,r2
 20414d0:	e13c8304 	addi	r4,fp,-3572
 20414d4:	2085883a 	add	r2,r4,r2
 20414d8:	10804b04 	addi	r2,r2,300
 20414dc:	10000015 	stw	zero,0(r2)
		f1scores[i]=0;
 20414e0:	e0bc8517 	ldw	r2,-3564(fp)
 20414e4:	1085883a 	add	r2,r2,r2
 20414e8:	1085883a 	add	r2,r2,r2
 20414ec:	e0fc8304 	addi	r3,fp,-3572
 20414f0:	1885883a 	add	r2,r3,r2
 20414f4:	10805504 	addi	r2,r2,340
 20414f8:	10000015 	stw	zero,0(r2)
		FN[i]=0;
 20414fc:	e0bc8517 	ldw	r2,-3564(fp)
 2041500:	1085883a 	add	r2,r2,r2
 2041504:	1085883a 	add	r2,r2,r2
 2041508:	e13c8304 	addi	r4,fp,-3572
 204150c:	2085883a 	add	r2,r4,r2
 2041510:	10802304 	addi	r2,r2,140
 2041514:	10000015 	stw	zero,0(r2)
		TP[i]=0;
 2041518:	e0bc8517 	ldw	r2,-3564(fp)
 204151c:	1085883a 	add	r2,r2,r2
 2041520:	1085883a 	add	r2,r2,r2
 2041524:	e0fc8304 	addi	r3,fp,-3572
 2041528:	1885883a 	add	r2,r3,r2
 204152c:	10802d04 	addi	r2,r2,180
 2041530:	10000015 	stw	zero,0(r2)
		FP[i]=0;
 2041534:	e0bc8517 	ldw	r2,-3564(fp)
 2041538:	1085883a 	add	r2,r2,r2
 204153c:	1085883a 	add	r2,r2,r2
 2041540:	e13c8304 	addi	r4,fp,-3572
 2041544:	2085883a 	add	r2,r4,r2
 2041548:	10803704 	addi	r2,r2,220
 204154c:	10000015 	stw	zero,0(r2)
	float FP[10];

	float precision[10];
	float recall[10];
	float f1scores[10];
	for (i = 0; i<10;i++){
 2041550:	e0bc8517 	ldw	r2,-3564(fp)
 2041554:	10800044 	addi	r2,r2,1
 2041558:	e0bc8515 	stw	r2,-3564(fp)
 204155c:	e0bc8517 	ldw	r2,-3564(fp)
 2041560:	10800290 	cmplti	r2,r2,10
 2041564:	103fd01e 	bne	r2,zero,20414a8 <__alt_data_end+0xfffc14a8>
		TP[i]=0;
		FP[i]=0;
	}

	char nome[14];
	time=0;
 2041568:	e03c8d15 	stw	zero,-3532(fp)
	avgtime=0;
 204156c:	e03c8415 	stw	zero,-3568(fp)
	freq = alt_timestamp_freq();
 2041570:	20403880 	call	2040388 <alt_timestamp_freq>
 2041574:	1009883a 	mov	r4,r2
 2041578:	204cfe00 	call	204cfe0 <__floatunsisf>
 204157c:	1007883a 	mov	r3,r2
 2041580:	e0fc8e15 	stw	r3,-3528(fp)

	for (i=21; i<(nimages); i++){
 2041584:	00800544 	movi	r2,21
 2041588:	e0bc8515 	stw	r2,-3564(fp)
 204158c:	00020806 	br	2041db0 <fast_version1+0x94c>

		snprintf(nome, 14, "%d.txt", i);//
 2041590:	e0bce204 	addi	r2,fp,-3192
 2041594:	e1fc8517 	ldw	r7,-3564(fp)
 2041598:	018081b4 	movhi	r6,518
 204159c:	318ae604 	addi	r6,r6,11160
 20415a0:	01400384 	movi	r5,14
 20415a4:	1009883a 	mov	r4,r2
 20415a8:	20506a00 	call	20506a0 <snprintf>
		label = readimage(hFat,pixels,nome);
 20415ac:	e0bce204 	addi	r2,fp,-3192
 20415b0:	100d883a 	mov	r6,r2
 20415b4:	e17c8c17 	ldw	r5,-3536(fp)
 20415b8:	e11eac17 	ldw	r4,31408(fp)
 20415bc:	204430c0 	call	204430c <readimage>
 20415c0:	e0bc8f15 	stw	r2,-3524(fp)
	    int ki, kj;
	    float ksum, kmax;

	    unsigned int ui;

	    alt_timestamp_start();
 20415c4:	20402900 	call	2040290 <alt_timestamp_start>
	    float f[MNIST_IMAGE_SIZE];
	    //pixel preprocessing and initializing
	    IOWR_ALTERA_AVALON_PIO_DATA(SYNC_DATA_BASE,1<<7);
 20415c8:	00c02004 	movi	r3,128
 20415cc:	00808234 	movhi	r2,520
 20415d0:	108c1004 	addi	r2,r2,12352
 20415d4:	10c00035 	stwio	r3,0(r2)
	    for (kj = 0; kj < MNIST_IMAGE_SIZE; kj++){
 20415d8:	e03c8915 	stw	zero,-3548(fp)
 20415dc:	00003606 	br	20416b8 <fast_version1+0x254>
	    	f[kj] = pixels[kj] / 255.0;
 20415e0:	e0bc8917 	ldw	r2,-3548(fp)
 20415e4:	1085883a 	add	r2,r2,r2
 20415e8:	1085883a 	add	r2,r2,r2
 20415ec:	1007883a 	mov	r3,r2
 20415f0:	e0bc8c17 	ldw	r2,-3536(fp)
 20415f4:	10c5883a 	add	r2,r2,r3
 20415f8:	10800017 	ldw	r2,0(r2)
 20415fc:	1009883a 	mov	r4,r2
 2041600:	204f5500 	call	204f550 <__floatsidf>
 2041604:	1011883a 	mov	r8,r2
 2041608:	1813883a 	mov	r9,r3
 204160c:	000d883a 	mov	r6,zero
 2041610:	01d01c34 	movhi	r7,16496
 2041614:	39f80004 	addi	r7,r7,-8192
 2041618:	4009883a 	mov	r4,r8
 204161c:	480b883a 	mov	r5,r9
 2041620:	204d97c0 	call	204d97c <__divdf3>
 2041624:	1009883a 	mov	r4,r2
 2041628:	180b883a 	mov	r5,r3
 204162c:	2005883a 	mov	r2,r4
 2041630:	2807883a 	mov	r3,r5
 2041634:	1009883a 	mov	r4,r2
 2041638:	180b883a 	mov	r5,r3
 204163c:	204f73c0 	call	204f73c <__truncdfsf2>
 2041640:	1007883a 	mov	r3,r2
 2041644:	e0bc8917 	ldw	r2,-3548(fp)
 2041648:	1085883a 	add	r2,r2,r2
 204164c:	1085883a 	add	r2,r2,r2
 2041650:	e13c8304 	addi	r4,fp,-3572
 2041654:	2085883a 	add	r2,r4,r2
 2041658:	10806b04 	addi	r2,r2,428
 204165c:	10c00015 	stw	r3,0(r2)
	    	float f3 = f[kj];
 2041660:	e0bc8917 	ldw	r2,-3548(fp)
 2041664:	1085883a 	add	r2,r2,r2
 2041668:	1085883a 	add	r2,r2,r2
 204166c:	e0fc8304 	addi	r3,fp,-3572
 2041670:	1885883a 	add	r2,r3,r2
 2041674:	10c06b04 	addi	r3,r2,428
 2041678:	18800017 	ldw	r2,0(r3)
 204167c:	e0bcec15 	stw	r2,-3152(fp)
			memcpy(&ui, &f3, sizeof (ui));
 2041680:	e0bcec17 	ldw	r2,-3152(fp)
 2041684:	e0bceb15 	stw	r2,-3156(fp)
			IOWR_ALTERA_AVALON_PIO_DATA(PIXEL_INDEX_BASE,kj);
 2041688:	00808234 	movhi	r2,520
 204168c:	108c0c04 	addi	r2,r2,12336
 2041690:	e0fc8917 	ldw	r3,-3548(fp)
 2041694:	10c00035 	stwio	r3,0(r2)
			IOWR_ALTERA_AVALON_PIO_DATA(FLOATDATA_OUTPUT_BASE,ui);
 2041698:	e0bceb17 	ldw	r2,-3156(fp)
 204169c:	1007883a 	mov	r3,r2
 20416a0:	00808234 	movhi	r2,520
 20416a4:	108c1404 	addi	r2,r2,12368
 20416a8:	10c00035 	stwio	r3,0(r2)

	    alt_timestamp_start();
	    float f[MNIST_IMAGE_SIZE];
	    //pixel preprocessing and initializing
	    IOWR_ALTERA_AVALON_PIO_DATA(SYNC_DATA_BASE,1<<7);
	    for (kj = 0; kj < MNIST_IMAGE_SIZE; kj++){
 20416ac:	e0bc8917 	ldw	r2,-3548(fp)
 20416b0:	10800044 	addi	r2,r2,1
 20416b4:	e0bc8915 	stw	r2,-3548(fp)
 20416b8:	e0bc8917 	ldw	r2,-3548(fp)
 20416bc:	1080c410 	cmplti	r2,r2,784
 20416c0:	103fc71e 	bne	r2,zero,20415e0 <__alt_data_end+0xfffc15e0>
			IOWR_ALTERA_AVALON_PIO_DATA(PIXEL_INDEX_BASE,kj);
			IOWR_ALTERA_AVALON_PIO_DATA(FLOATDATA_OUTPUT_BASE,ui);
	    }

	    //activations initializing
	    IOWR_ALTERA_AVALON_PIO_DATA(SYNC_DATA_BASE, (1<<4)+(1<<5));
 20416c4:	00c00c04 	movi	r3,48
 20416c8:	00808234 	movhi	r2,520
 20416cc:	108c1004 	addi	r2,r2,12352
 20416d0:	10c00035 	stwio	r3,0(r2)
	    for (ki = 0; ki < MNIST_LABELS; ki++) {
 20416d4:	e03c8815 	stw	zero,-3552(fp)
 20416d8:	00001506 	br	2041730 <fast_version1+0x2cc>
	    	float f2 = network.b[ki];
 20416dc:	e0bc8817 	ldw	r2,-3552(fp)
 20416e0:	1085883a 	add	r2,r2,r2
 20416e4:	1085883a 	add	r2,r2,r2
 20416e8:	e1000204 	addi	r4,fp,8
 20416ec:	2087883a 	add	r3,r4,r2
 20416f0:	18800017 	ldw	r2,0(r3)
 20416f4:	e0bced15 	stw	r2,-3148(fp)
	    	memcpy(&ui, &f2, sizeof (ui));
 20416f8:	e0bced17 	ldw	r2,-3148(fp)
 20416fc:	e0bceb15 	stw	r2,-3156(fp)
	    	IOWR_ALTERA_AVALON_PIO_DATA(ACTIVATIONS_INDEX_BASE, ki);
 2041700:	00808234 	movhi	r2,520
 2041704:	108c0004 	addi	r2,r2,12288
 2041708:	e0fc8817 	ldw	r3,-3552(fp)
 204170c:	10c00035 	stwio	r3,0(r2)
	    	IOWR_ALTERA_AVALON_PIO_DATA(FLOATDATA_OUTPUT_BASE, ui);
 2041710:	e0bceb17 	ldw	r2,-3156(fp)
 2041714:	1007883a 	mov	r3,r2
 2041718:	00808234 	movhi	r2,520
 204171c:	108c1404 	addi	r2,r2,12368
 2041720:	10c00035 	stwio	r3,0(r2)
			IOWR_ALTERA_AVALON_PIO_DATA(FLOATDATA_OUTPUT_BASE,ui);
	    }

	    //activations initializing
	    IOWR_ALTERA_AVALON_PIO_DATA(SYNC_DATA_BASE, (1<<4)+(1<<5));
	    for (ki = 0; ki < MNIST_LABELS; ki++) {
 2041724:	e0bc8817 	ldw	r2,-3552(fp)
 2041728:	10800044 	addi	r2,r2,1
 204172c:	e0bc8815 	stw	r2,-3552(fp)
 2041730:	e0bc8817 	ldw	r2,-3552(fp)
 2041734:	10800290 	cmplti	r2,r2,10
 2041738:	103fe81e 	bne	r2,zero,20416dc <__alt_data_end+0xfffc16dc>
	    	IOWR_ALTERA_AVALON_PIO_DATA(ACTIVATIONS_INDEX_BASE, ki);
	    	IOWR_ALTERA_AVALON_PIO_DATA(FLOATDATA_OUTPUT_BASE, ui);
	    }


		for (ki = 0; ki < 10; ki++) {
 204173c:	e03c8815 	stw	zero,-3552(fp)
 2041740:	00007a06 	br	204192c <fast_version1+0x4c8>
			//load activation index
			IOWR_ALTERA_AVALON_PIO_DATA(ACTIVATIONS_INDEX_BASE, ki);
 2041744:	00808234 	movhi	r2,520
 2041748:	108c0004 	addi	r2,r2,12288
 204174c:	e0fc8817 	ldw	r3,-3552(fp)
 2041750:	10c00035 	stwio	r3,0(r2)
			//clear flip-flops
			IOWR_ALTERA_AVALON_PIO_DATA(SYNC_DATA_BASE, (1<<5));
 2041754:	00c00804 	movi	r3,32
 2041758:	00808234 	movhi	r2,520
 204175c:	108c1004 	addi	r2,r2,12352
 2041760:	10c00035 	stwio	r3,0(r2)
			//load new value for the flip-flops
			IOWR_ALTERA_AVALON_PIO_DATA(SYNC_DATA_BASE,0);
 2041764:	0007883a 	mov	r3,zero
 2041768:	00808234 	movhi	r2,520
 204176c:	108c1004 	addi	r2,r2,12352
 2041770:	10c00035 	stwio	r3,0(r2)
	    	IOWR_ALTERA_AVALON_PIO_DATA(SYNC_DATA_BASE,1);
 2041774:	00c00044 	movi	r3,1
 2041778:	00808234 	movhi	r2,520
 204177c:	108c1004 	addi	r2,r2,12352
 2041780:	10c00035 	stwio	r3,0(r2)
	    	//cpu-wise initialization
	    	activations2[ki] = network.b[ki];
 2041784:	e0bc8817 	ldw	r2,-3552(fp)
 2041788:	1085883a 	add	r2,r2,r2
 204178c:	1085883a 	add	r2,r2,r2
 2041790:	e0c00204 	addi	r3,fp,8
 2041794:	1885883a 	add	r2,r3,r2
 2041798:	10c00017 	ldw	r3,0(r2)
 204179c:	e0bc8817 	ldw	r2,-3552(fp)
 20417a0:	1085883a 	add	r2,r2,r2
 20417a4:	1085883a 	add	r2,r2,r2
 20417a8:	e13c8304 	addi	r4,fp,-3572
 20417ac:	2085883a 	add	r2,r4,r2
 20417b0:	10801904 	addi	r2,r2,100
 20417b4:	10c00015 	stw	r3,0(r2)
	    	//pixel cicle, only half of iterations are needed
			for (kj = 0; kj < 392; kj++) {
 20417b8:	e03c8915 	stw	zero,-3548(fp)
 20417bc:	00005506 	br	2041914 <fast_version1+0x4b0>
				//load weight index
		    	IOWR_ALTERA_AVALON_PIO_DATA(WEIGHT_INDEX_BASE,ki*784+kj);
 20417c0:	e0bc8817 	ldw	r2,-3552(fp)
 20417c4:	10c0c424 	muli	r3,r2,784
 20417c8:	e0bc8917 	ldw	r2,-3548(fp)
 20417cc:	1887883a 	add	r3,r3,r2
 20417d0:	00808234 	movhi	r2,520
 20417d4:	108c0804 	addi	r2,r2,12320
 20417d8:	10c00035 	stwio	r3,0(r2)
		    	//enable rom read
		    	IOWR_ALTERA_AVALON_PIO_DATA(SYNC_DATA_BASE, (1<<8));
 20417dc:	00c04004 	movi	r3,256
 20417e0:	00808234 	movhi	r2,520
 20417e4:	108c1004 	addi	r2,r2,12352
 20417e8:	10c00035 	stwio	r3,0(r2)
		    	//load pixel index
		    	IOWR_ALTERA_AVALON_PIO_DATA(PIXEL_INDEX_BASE,kj);
 20417ec:	00808234 	movhi	r2,520
 20417f0:	108c0c04 	addi	r2,r2,12336
 20417f4:	e0fc8917 	ldw	r3,-3548(fp)
 20417f8:	10c00035 	stwio	r3,0(r2)
		    	//enable ALU clock and keep rom read enabled
		    	IOWR_ALTERA_AVALON_PIO_DATA(SYNC_DATA_BASE, (1<<8)+(1<<9));
 20417fc:	00c0c004 	movi	r3,768
 2041800:	00808234 	movhi	r2,520
 2041804:	108c1004 	addi	r2,r2,12352
 2041808:	10c00035 	stwio	r3,0(r2)
		    	//nios-wise calculation with 392 pixels of offset (calculating the other half of the image)
		    	activations2[ki] += network.W[ki][kj+392] * f[kj+392];
 204180c:	e0bc8817 	ldw	r2,-3552(fp)
 2041810:	1085883a 	add	r2,r2,r2
 2041814:	1085883a 	add	r2,r2,r2
 2041818:	e0fc8304 	addi	r3,fp,-3572
 204181c:	1885883a 	add	r2,r3,r2
 2041820:	10801904 	addi	r2,r2,100
 2041824:	14000017 	ldw	r16,0(r2)
 2041828:	e0bc8917 	ldw	r2,-3548(fp)
 204182c:	10806204 	addi	r2,r2,392
 2041830:	e0fc8817 	ldw	r3,-3552(fp)
 2041834:	18c0c424 	muli	r3,r3,784
 2041838:	1885883a 	add	r2,r3,r2
 204183c:	10800284 	addi	r2,r2,10
 2041840:	1085883a 	add	r2,r2,r2
 2041844:	1085883a 	add	r2,r2,r2
 2041848:	e1000204 	addi	r4,fp,8
 204184c:	2085883a 	add	r2,r4,r2
 2041850:	10c00017 	ldw	r3,0(r2)
 2041854:	e0bc8917 	ldw	r2,-3548(fp)
 2041858:	10806204 	addi	r2,r2,392
 204185c:	1085883a 	add	r2,r2,r2
 2041860:	1085883a 	add	r2,r2,r2
 2041864:	e13c8304 	addi	r4,fp,-3572
 2041868:	2085883a 	add	r2,r4,r2
 204186c:	10806b04 	addi	r2,r2,428
 2041870:	11000017 	ldw	r4,0(r2)
 2041874:	200b883a 	mov	r5,r4
 2041878:	1809883a 	mov	r4,r3
 204187c:	204c5dc0 	call	204c5dc <__mulsf3>
 2041880:	1007883a 	mov	r3,r2
 2041884:	1805883a 	mov	r2,r3
 2041888:	100b883a 	mov	r5,r2
 204188c:	8009883a 	mov	r4,r16
 2041890:	204bc180 	call	204bc18 <__addsf3>
 2041894:	1009883a 	mov	r4,r2
 2041898:	2007883a 	mov	r3,r4
 204189c:	e0bc8817 	ldw	r2,-3552(fp)
 20418a0:	1085883a 	add	r2,r2,r2
 20418a4:	1085883a 	add	r2,r2,r2
 20418a8:	e13c8304 	addi	r4,fp,-3572
 20418ac:	2085883a 	add	r2,r4,r2
 20418b0:	10801904 	addi	r2,r2,100
 20418b4:	10c00015 	stw	r3,0(r2)
		    	//load value from ALU to flip flop
		    	IOWR_ALTERA_AVALON_PIO_DATA(SYNC_DATA_BASE,0);
 20418b8:	0007883a 	mov	r3,zero
 20418bc:	00808234 	movhi	r2,520
 20418c0:	108c1004 	addi	r2,r2,12352
 20418c4:	10c00035 	stwio	r3,0(r2)
				IOWR_ALTERA_AVALON_PIO_DATA(SYNC_DATA_BASE,2);
 20418c8:	00c00084 	movi	r3,2
 20418cc:	00808234 	movhi	r2,520
 20418d0:	108c1004 	addi	r2,r2,12352
 20418d4:	10c00035 	stwio	r3,0(r2)
				//enable writes on activation RAM
		    	IOWR_ALTERA_AVALON_PIO_DATA(SYNC_DATA_BASE, (1<<4)+(1<<8)+(1<<9));
 20418d8:	00c0c404 	movi	r3,784
 20418dc:	00808234 	movhi	r2,520
 20418e0:	108c1004 	addi	r2,r2,12352
 20418e4:	10c00035 	stwio	r3,0(r2)
		    	//load new value for the activation DFF
				IOWR_ALTERA_AVALON_PIO_DATA(SYNC_DATA_BASE,0);
 20418e8:	0007883a 	mov	r3,zero
 20418ec:	00808234 	movhi	r2,520
 20418f0:	108c1004 	addi	r2,r2,12352
 20418f4:	10c00035 	stwio	r3,0(r2)
		    	IOWR_ALTERA_AVALON_PIO_DATA(SYNC_DATA_BASE,1);
 20418f8:	00c00044 	movi	r3,1
 20418fc:	00808234 	movhi	r2,520
 2041900:	108c1004 	addi	r2,r2,12352
 2041904:	10c00035 	stwio	r3,0(r2)
			IOWR_ALTERA_AVALON_PIO_DATA(SYNC_DATA_BASE,0);
	    	IOWR_ALTERA_AVALON_PIO_DATA(SYNC_DATA_BASE,1);
	    	//cpu-wise initialization
	    	activations2[ki] = network.b[ki];
	    	//pixel cicle, only half of iterations are needed
			for (kj = 0; kj < 392; kj++) {
 2041908:	e0bc8917 	ldw	r2,-3548(fp)
 204190c:	10800044 	addi	r2,r2,1
 2041910:	e0bc8915 	stw	r2,-3548(fp)
 2041914:	e0bc8917 	ldw	r2,-3548(fp)
 2041918:	10806210 	cmplti	r2,r2,392
 204191c:	103fa81e 	bne	r2,zero,20417c0 <__alt_data_end+0xfffc17c0>
	    	IOWR_ALTERA_AVALON_PIO_DATA(ACTIVATIONS_INDEX_BASE, ki);
	    	IOWR_ALTERA_AVALON_PIO_DATA(FLOATDATA_OUTPUT_BASE, ui);
	    }


		for (ki = 0; ki < 10; ki++) {
 2041920:	e0bc8817 	ldw	r2,-3552(fp)
 2041924:	10800044 	addi	r2,r2,1
 2041928:	e0bc8815 	stw	r2,-3552(fp)
 204192c:	e0bc8817 	ldw	r2,-3552(fp)
 2041930:	10800290 	cmplti	r2,r2,10
 2041934:	103f831e 	bne	r2,zero,2041744 <__alt_data_end+0xfffc1744>
			}
		}


		//copy back the RTL calculations and sum them to CPU activations
		for (ki = 0; ki < MNIST_LABELS; ki++) {
 2041938:	e03c8815 	stw	zero,-3552(fp)
 204193c:	00003706 	br	2041a1c <fast_version1+0x5b8>
			IOWR_ALTERA_AVALON_PIO_DATA(ACTIVATIONS_INDEX_BASE, ki);
 2041940:	00808234 	movhi	r2,520
 2041944:	108c0004 	addi	r2,r2,12288
 2041948:	e0fc8817 	ldw	r3,-3552(fp)
 204194c:	10c00035 	stwio	r3,0(r2)
	    	IOWR_ALTERA_AVALON_PIO_DATA(SYNC_DATA_BASE,0);
 2041950:	0007883a 	mov	r3,zero
 2041954:	00808234 	movhi	r2,520
 2041958:	108c1004 	addi	r2,r2,12352
 204195c:	10c00035 	stwio	r3,0(r2)
	    	IOWR_ALTERA_AVALON_PIO_DATA(SYNC_DATA_BASE,1);
 2041960:	00c00044 	movi	r3,1
 2041964:	00808234 	movhi	r2,520
 2041968:	108c1004 	addi	r2,r2,12352
 204196c:	10c00035 	stwio	r3,0(r2)
	    	unsigned int a = IORD_ALTERA_AVALON_PIO_DATA(RESULTS_INPUT_BASE);
 2041970:	00808234 	movhi	r2,520
 2041974:	108c0404 	addi	r2,r2,12304
 2041978:	10800037 	ldwio	r2,0(r2)
 204197c:	e0bc9015 	stw	r2,-3520(fp)
	    	activations[ki] = ConvertNumberToFloat(a);
 2041980:	e13c9017 	ldw	r4,-3520(fp)
 2041984:	204049c0 	call	204049c <ConvertNumberToFloat>
 2041988:	1007883a 	mov	r3,r2
 204198c:	e0bc8817 	ldw	r2,-3552(fp)
 2041990:	1085883a 	add	r2,r2,r2
 2041994:	1085883a 	add	r2,r2,r2
 2041998:	e13c8304 	addi	r4,fp,-3572
 204199c:	2085883a 	add	r2,r4,r2
 20419a0:	10800f04 	addi	r2,r2,60
 20419a4:	10c00015 	stw	r3,0(r2)
	    	activations[ki] += activations2[ki];
 20419a8:	e0bc8817 	ldw	r2,-3552(fp)
 20419ac:	1085883a 	add	r2,r2,r2
 20419b0:	1085883a 	add	r2,r2,r2
 20419b4:	e0fc8304 	addi	r3,fp,-3572
 20419b8:	1885883a 	add	r2,r3,r2
 20419bc:	10800f04 	addi	r2,r2,60
 20419c0:	10c00017 	ldw	r3,0(r2)
 20419c4:	e0bc8817 	ldw	r2,-3552(fp)
 20419c8:	1085883a 	add	r2,r2,r2
 20419cc:	1085883a 	add	r2,r2,r2
 20419d0:	e13c8304 	addi	r4,fp,-3572
 20419d4:	2085883a 	add	r2,r4,r2
 20419d8:	10801904 	addi	r2,r2,100
 20419dc:	11000017 	ldw	r4,0(r2)
 20419e0:	200b883a 	mov	r5,r4
 20419e4:	1809883a 	mov	r4,r3
 20419e8:	204bc180 	call	204bc18 <__addsf3>
 20419ec:	1009883a 	mov	r4,r2
 20419f0:	2007883a 	mov	r3,r4
 20419f4:	e0bc8817 	ldw	r2,-3552(fp)
 20419f8:	1085883a 	add	r2,r2,r2
 20419fc:	1085883a 	add	r2,r2,r2
 2041a00:	e13c8304 	addi	r4,fp,-3572
 2041a04:	2085883a 	add	r2,r4,r2
 2041a08:	10800f04 	addi	r2,r2,60
 2041a0c:	10c00015 	stw	r3,0(r2)
			}
		}


		//copy back the RTL calculations and sum them to CPU activations
		for (ki = 0; ki < MNIST_LABELS; ki++) {
 2041a10:	e0bc8817 	ldw	r2,-3552(fp)
 2041a14:	10800044 	addi	r2,r2,1
 2041a18:	e0bc8815 	stw	r2,-3552(fp)
 2041a1c:	e0bc8817 	ldw	r2,-3552(fp)
 2041a20:	10800290 	cmplti	r2,r2,10
 2041a24:	103fc61e 	bne	r2,zero,2041940 <__alt_data_end+0xfffc1940>
	    	unsigned int a = IORD_ALTERA_AVALON_PIO_DATA(RESULTS_INPUT_BASE);
	    	activations[ki] = ConvertNumberToFloat(a);
	    	activations[ki] += activations2[ki];
		}

		time = alt_timestamp();
 2041a28:	20403080 	call	2040308 <alt_timestamp>
 2041a2c:	1009883a 	mov	r4,r2
 2041a30:	204cfe00 	call	204cfe0 <__floatunsisf>
 2041a34:	1007883a 	mov	r3,r2
 2041a38:	e0fc8d15 	stw	r3,-3532(fp)
		//calculate softmax
	    for (ki = 1, kmax = activations[0]; ki < MNIST_LABELS; ki++) {
 2041a3c:	00800044 	movi	r2,1
 2041a40:	e0bc8815 	stw	r2,-3552(fp)
 2041a44:	e0bc9217 	ldw	r2,-3512(fp)
 2041a48:	e0bc8b15 	stw	r2,-3540(fp)
 2041a4c:	00001606 	br	2041aa8 <fast_version1+0x644>
	        if (activations[ki] > kmax) {
 2041a50:	e0bc8817 	ldw	r2,-3552(fp)
 2041a54:	1085883a 	add	r2,r2,r2
 2041a58:	1085883a 	add	r2,r2,r2
 2041a5c:	e0fc8304 	addi	r3,fp,-3572
 2041a60:	1885883a 	add	r2,r3,r2
 2041a64:	10800f04 	addi	r2,r2,60
 2041a68:	10c00017 	ldw	r3,0(r2)
 2041a6c:	e17c8b17 	ldw	r5,-3540(fp)
 2041a70:	1809883a 	mov	r4,r3
 2041a74:	204c5200 	call	204c520 <__gesf2>
 2041a78:	0080080e 	bge	zero,r2,2041a9c <fast_version1+0x638>
	            kmax = activations[ki];
 2041a7c:	e0bc8817 	ldw	r2,-3552(fp)
 2041a80:	1085883a 	add	r2,r2,r2
 2041a84:	1085883a 	add	r2,r2,r2
 2041a88:	e13c8304 	addi	r4,fp,-3572
 2041a8c:	2085883a 	add	r2,r4,r2
 2041a90:	10800f04 	addi	r2,r2,60
 2041a94:	10800017 	ldw	r2,0(r2)
 2041a98:	e0bc8b15 	stw	r2,-3540(fp)
	    	activations[ki] += activations2[ki];
		}

		time = alt_timestamp();
		//calculate softmax
	    for (ki = 1, kmax = activations[0]; ki < MNIST_LABELS; ki++) {
 2041a9c:	e0bc8817 	ldw	r2,-3552(fp)
 2041aa0:	10800044 	addi	r2,r2,1
 2041aa4:	e0bc8815 	stw	r2,-3552(fp)
 2041aa8:	e0bc8817 	ldw	r2,-3552(fp)
 2041aac:	10800290 	cmplti	r2,r2,10
 2041ab0:	103fe71e 	bne	r2,zero,2041a50 <__alt_data_end+0xfffc1a50>
	        if (activations[ki] > kmax) {
	            kmax = activations[ki];
	        }
	    }

	    for (ki = 0, ksum = 0; ki < MNIST_LABELS; ki++) {
 2041ab4:	e03c8815 	stw	zero,-3552(fp)
 2041ab8:	e03c8a15 	stw	zero,-3544(fp)
 2041abc:	00002f06 	br	2041b7c <fast_version1+0x718>
	        activations[ki] = exp(activations[ki] - kmax);
 2041ac0:	e0bc8817 	ldw	r2,-3552(fp)
 2041ac4:	1085883a 	add	r2,r2,r2
 2041ac8:	1085883a 	add	r2,r2,r2
 2041acc:	e0fc8304 	addi	r3,fp,-3572
 2041ad0:	1885883a 	add	r2,r3,r2
 2041ad4:	10800f04 	addi	r2,r2,60
 2041ad8:	10c00017 	ldw	r3,0(r2)
 2041adc:	e17c8b17 	ldw	r5,-3540(fp)
 2041ae0:	1809883a 	mov	r4,r3
 2041ae4:	204c9d80 	call	204c9d8 <__subsf3>
 2041ae8:	1007883a 	mov	r3,r2
 2041aec:	1805883a 	mov	r2,r3
 2041af0:	1009883a 	mov	r4,r2
 2041af4:	204f62c0 	call	204f62c <__extendsfdf2>
 2041af8:	100b883a 	mov	r5,r2
 2041afc:	180d883a 	mov	r6,r3
 2041b00:	2809883a 	mov	r4,r5
 2041b04:	300b883a 	mov	r5,r6
 2041b08:	20497a00 	call	20497a0 <exp>
 2041b0c:	100b883a 	mov	r5,r2
 2041b10:	180d883a 	mov	r6,r3
 2041b14:	2809883a 	mov	r4,r5
 2041b18:	300b883a 	mov	r5,r6
 2041b1c:	204f73c0 	call	204f73c <__truncdfsf2>
 2041b20:	1007883a 	mov	r3,r2
 2041b24:	e0bc8817 	ldw	r2,-3552(fp)
 2041b28:	1085883a 	add	r2,r2,r2
 2041b2c:	1085883a 	add	r2,r2,r2
 2041b30:	e13c8304 	addi	r4,fp,-3572
 2041b34:	2085883a 	add	r2,r4,r2
 2041b38:	10800f04 	addi	r2,r2,60
 2041b3c:	10c00015 	stw	r3,0(r2)
	        ksum += activations[ki];
 2041b40:	e0bc8817 	ldw	r2,-3552(fp)
 2041b44:	1085883a 	add	r2,r2,r2
 2041b48:	1085883a 	add	r2,r2,r2
 2041b4c:	e0fc8304 	addi	r3,fp,-3572
 2041b50:	1885883a 	add	r2,r3,r2
 2041b54:	10800f04 	addi	r2,r2,60
 2041b58:	10c00017 	ldw	r3,0(r2)
 2041b5c:	180b883a 	mov	r5,r3
 2041b60:	e13c8a17 	ldw	r4,-3544(fp)
 2041b64:	204bc180 	call	204bc18 <__addsf3>
 2041b68:	1007883a 	mov	r3,r2
 2041b6c:	e0fc8a15 	stw	r3,-3544(fp)
	        if (activations[ki] > kmax) {
	            kmax = activations[ki];
	        }
	    }

	    for (ki = 0, ksum = 0; ki < MNIST_LABELS; ki++) {
 2041b70:	e0bc8817 	ldw	r2,-3552(fp)
 2041b74:	10800044 	addi	r2,r2,1
 2041b78:	e0bc8815 	stw	r2,-3552(fp)
 2041b7c:	e0bc8817 	ldw	r2,-3552(fp)
 2041b80:	10800290 	cmplti	r2,r2,10
 2041b84:	103fce1e 	bne	r2,zero,2041ac0 <__alt_data_end+0xfffc1ac0>
	        activations[ki] = exp(activations[ki] - kmax);
	        ksum += activations[ki];
	    }

	    for (ki = 0; ki < MNIST_LABELS; ki++) {
 2041b88:	e03c8815 	stw	zero,-3552(fp)
 2041b8c:	00001606 	br	2041be8 <fast_version1+0x784>
	        activations[ki] /= ksum;
 2041b90:	e0bc8817 	ldw	r2,-3552(fp)
 2041b94:	1085883a 	add	r2,r2,r2
 2041b98:	1085883a 	add	r2,r2,r2
 2041b9c:	e13c8304 	addi	r4,fp,-3572
 2041ba0:	2085883a 	add	r2,r4,r2
 2041ba4:	10800f04 	addi	r2,r2,60
 2041ba8:	10c00017 	ldw	r3,0(r2)
 2041bac:	e17c8a17 	ldw	r5,-3544(fp)
 2041bb0:	1809883a 	mov	r4,r3
 2041bb4:	204c0e00 	call	204c0e0 <__divsf3>
 2041bb8:	1009883a 	mov	r4,r2
 2041bbc:	2007883a 	mov	r3,r4
 2041bc0:	e0bc8817 	ldw	r2,-3552(fp)
 2041bc4:	1085883a 	add	r2,r2,r2
 2041bc8:	1085883a 	add	r2,r2,r2
 2041bcc:	e13c8304 	addi	r4,fp,-3572
 2041bd0:	2085883a 	add	r2,r4,r2
 2041bd4:	10800f04 	addi	r2,r2,60
 2041bd8:	10c00015 	stw	r3,0(r2)
	    for (ki = 0, ksum = 0; ki < MNIST_LABELS; ki++) {
	        activations[ki] = exp(activations[ki] - kmax);
	        ksum += activations[ki];
	    }

	    for (ki = 0; ki < MNIST_LABELS; ki++) {
 2041bdc:	e0bc8817 	ldw	r2,-3552(fp)
 2041be0:	10800044 	addi	r2,r2,1
 2041be4:	e0bc8815 	stw	r2,-3552(fp)
 2041be8:	e0bc8817 	ldw	r2,-3552(fp)
 2041bec:	10800290 	cmplti	r2,r2,10
 2041bf0:	103fe71e 	bne	r2,zero,2041b90 <__alt_data_end+0xfffc1b90>
	        activations[ki] /= ksum;
	    }


		// Set predict to the index of the greatest activation
		for (j = 0, predict = 0, max_activation = activations[0]; j < MNIST_LABELS; j++) {
 2041bf4:	e03c8615 	stw	zero,-3560(fp)
 2041bf8:	e03c8715 	stw	zero,-3556(fp)
 2041bfc:	e0bc9217 	ldw	r2,-3512(fp)
 2041c00:	e0bc8315 	stw	r2,-3572(fp)
 2041c04:	00001806 	br	2041c68 <fast_version1+0x804>
			if (max_activation < activations[j]) {
 2041c08:	e0bc8617 	ldw	r2,-3560(fp)
 2041c0c:	1085883a 	add	r2,r2,r2
 2041c10:	1085883a 	add	r2,r2,r2
 2041c14:	e0fc8304 	addi	r3,fp,-3572
 2041c18:	1885883a 	add	r2,r3,r2
 2041c1c:	10800f04 	addi	r2,r2,60
 2041c20:	10c00017 	ldw	r3,0(r2)
 2041c24:	e17c8317 	ldw	r5,-3572(fp)
 2041c28:	1809883a 	mov	r4,r3
 2041c2c:	204c5200 	call	204c520 <__gesf2>
 2041c30:	00800a0e 	bge	zero,r2,2041c5c <fast_version1+0x7f8>
				max_activation = activations[j];
 2041c34:	e0bc8617 	ldw	r2,-3560(fp)
 2041c38:	1085883a 	add	r2,r2,r2
 2041c3c:	1085883a 	add	r2,r2,r2
 2041c40:	e13c8304 	addi	r4,fp,-3572
 2041c44:	2085883a 	add	r2,r4,r2
 2041c48:	10800f04 	addi	r2,r2,60
 2041c4c:	10800017 	ldw	r2,0(r2)
 2041c50:	e0bc8315 	stw	r2,-3572(fp)
				predict = j;
 2041c54:	e0bc8617 	ldw	r2,-3560(fp)
 2041c58:	e0bc8715 	stw	r2,-3556(fp)
	        activations[ki] /= ksum;
	    }


		// Set predict to the index of the greatest activation
		for (j = 0, predict = 0, max_activation = activations[0]; j < MNIST_LABELS; j++) {
 2041c5c:	e0bc8617 	ldw	r2,-3560(fp)
 2041c60:	10800044 	addi	r2,r2,1
 2041c64:	e0bc8615 	stw	r2,-3560(fp)
 2041c68:	e0bc8617 	ldw	r2,-3560(fp)
 2041c6c:	10800290 	cmplti	r2,r2,10
 2041c70:	103fe51e 	bne	r2,zero,2041c08 <__alt_data_end+0xfffc1c08>
				max_activation = activations[j];
				predict = j;
			}
		}

		if(label == predict){
 2041c74:	e0fc8f17 	ldw	r3,-3524(fp)
 2041c78:	e0bc8717 	ldw	r2,-3556(fp)
 2041c7c:	1880141e 	bne	r3,r2,2041cd0 <fast_version1+0x86c>
			TP[label]+=1;
 2041c80:	e0bc8f17 	ldw	r2,-3524(fp)
 2041c84:	1085883a 	add	r2,r2,r2
 2041c88:	1085883a 	add	r2,r2,r2
 2041c8c:	e0fc8304 	addi	r3,fp,-3572
 2041c90:	1885883a 	add	r2,r3,r2
 2041c94:	10802d04 	addi	r2,r2,180
 2041c98:	10c00017 	ldw	r3,0(r2)
 2041c9c:	014fe034 	movhi	r5,16256
 2041ca0:	1809883a 	mov	r4,r3
 2041ca4:	204bc180 	call	204bc18 <__addsf3>
 2041ca8:	1009883a 	mov	r4,r2
 2041cac:	2007883a 	mov	r3,r4
 2041cb0:	e0bc8f17 	ldw	r2,-3524(fp)
 2041cb4:	1085883a 	add	r2,r2,r2
 2041cb8:	1085883a 	add	r2,r2,r2
 2041cbc:	e13c8304 	addi	r4,fp,-3572
 2041cc0:	2085883a 	add	r2,r4,r2
 2041cc4:	10802d04 	addi	r2,r2,180
 2041cc8:	10c00015 	stw	r3,0(r2)
 2041ccc:	00002606 	br	2041d68 <fast_version1+0x904>
		}
		else{
			FN[label]+=1;
 2041cd0:	e0bc8f17 	ldw	r2,-3524(fp)
 2041cd4:	1085883a 	add	r2,r2,r2
 2041cd8:	1085883a 	add	r2,r2,r2
 2041cdc:	e0fc8304 	addi	r3,fp,-3572
 2041ce0:	1885883a 	add	r2,r3,r2
 2041ce4:	10802304 	addi	r2,r2,140
 2041ce8:	10c00017 	ldw	r3,0(r2)
 2041cec:	014fe034 	movhi	r5,16256
 2041cf0:	1809883a 	mov	r4,r3
 2041cf4:	204bc180 	call	204bc18 <__addsf3>
 2041cf8:	1009883a 	mov	r4,r2
 2041cfc:	2007883a 	mov	r3,r4
 2041d00:	e0bc8f17 	ldw	r2,-3524(fp)
 2041d04:	1085883a 	add	r2,r2,r2
 2041d08:	1085883a 	add	r2,r2,r2
 2041d0c:	e13c8304 	addi	r4,fp,-3572
 2041d10:	2085883a 	add	r2,r4,r2
 2041d14:	10802304 	addi	r2,r2,140
 2041d18:	10c00015 	stw	r3,0(r2)
			FP[predict]+=1;
 2041d1c:	e0bc8717 	ldw	r2,-3556(fp)
 2041d20:	1085883a 	add	r2,r2,r2
 2041d24:	1085883a 	add	r2,r2,r2
 2041d28:	e0fc8304 	addi	r3,fp,-3572
 2041d2c:	1885883a 	add	r2,r3,r2
 2041d30:	10803704 	addi	r2,r2,220
 2041d34:	10c00017 	ldw	r3,0(r2)
 2041d38:	014fe034 	movhi	r5,16256
 2041d3c:	1809883a 	mov	r4,r3
 2041d40:	204bc180 	call	204bc18 <__addsf3>
 2041d44:	1009883a 	mov	r4,r2
 2041d48:	2007883a 	mov	r3,r4
 2041d4c:	e0bc8717 	ldw	r2,-3556(fp)
 2041d50:	1085883a 	add	r2,r2,r2
 2041d54:	1085883a 	add	r2,r2,r2
 2041d58:	e13c8304 	addi	r4,fp,-3572
 2041d5c:	2085883a 	add	r2,r4,r2
 2041d60:	10803704 	addi	r2,r2,220
 2041d64:	10c00015 	stw	r3,0(r2)
		}


		time = (time *1000 ) / freq; //get execution time (ms)
 2041d68:	01511eb4 	movhi	r5,17530
 2041d6c:	e13c8d17 	ldw	r4,-3532(fp)
 2041d70:	204c5dc0 	call	204c5dc <__mulsf3>
 2041d74:	1007883a 	mov	r3,r2
 2041d78:	1805883a 	mov	r2,r3
 2041d7c:	e17c8e17 	ldw	r5,-3528(fp)
 2041d80:	1009883a 	mov	r4,r2
 2041d84:	204c0e00 	call	204c0e0 <__divsf3>
 2041d88:	1007883a 	mov	r3,r2
 2041d8c:	e0fc8d15 	stw	r3,-3532(fp)
		avgtime += time;
 2041d90:	e17c8d17 	ldw	r5,-3532(fp)
 2041d94:	e13c8417 	ldw	r4,-3568(fp)
 2041d98:	204bc180 	call	204bc18 <__addsf3>
 2041d9c:	1007883a 	mov	r3,r2
 2041da0:	e0fc8415 	stw	r3,-3568(fp)
	char nome[14];
	time=0;
	avgtime=0;
	freq = alt_timestamp_freq();

	for (i=21; i<(nimages); i++){
 2041da4:	e0bc8517 	ldw	r2,-3564(fp)
 2041da8:	10800044 	addi	r2,r2,1
 2041dac:	e0bc8515 	stw	r2,-3564(fp)
 2041db0:	e0bffe0b 	ldhu	r2,-8(fp)
 2041db4:	e0fc8517 	ldw	r3,-3564(fp)
 2041db8:	18bdf516 	blt	r3,r2,2041590 <__alt_data_end+0xfffc1590>
		avgtime += time;

	}

	//SHOW STATS
	alt_up_char_buffer_dev * char_buffer = NULL ;
 2041dbc:	e03c9115 	stw	zero,-3516(fp)
	char_buffer = alt_up_char_buffer_open_dev ("/dev/video_character_buffer_with_dma_0");
 2041dc0:	010081b4 	movhi	r4,518
 2041dc4:	210ad304 	addi	r4,r4,11084
 2041dc8:	2060fa80 	call	2060fa8 <alt_up_char_buffer_open_dev>
 2041dcc:	e0bc9115 	stw	r2,-3516(fp)
	alt_up_char_buffer_init(char_buffer);
 2041dd0:	e13c9117 	ldw	r4,-3516(fp)
 2041dd4:	2060f280 	call	2060f28 <alt_up_char_buffer_init>
	alt_up_char_buffer_clear(char_buffer);
 2041dd8:	e13c9117 	ldw	r4,-3516(fp)
 2041ddc:	20611ac0 	call	20611ac <alt_up_char_buffer_clear>

	time    = avgtime;
 2041de0:	e0bc8417 	ldw	r2,-3568(fp)
 2041de4:	e0bc8d15 	stw	r2,-3532(fp)
	avgtime = avgtime/nimages;
 2041de8:	e0bffe0b 	ldhu	r2,-8(fp)
 2041dec:	1009883a 	mov	r4,r2
 2041df0:	204cebc0 	call	204cebc <__floatsisf>
 2041df4:	1007883a 	mov	r3,r2
 2041df8:	180b883a 	mov	r5,r3
 2041dfc:	e13c8417 	ldw	r4,-3568(fp)
 2041e00:	204c0e00 	call	204c0e0 <__divsf3>
 2041e04:	1007883a 	mov	r3,r2
 2041e08:	e0fc8415 	stw	r3,-3568(fp)
	char str[20];

	alt_up_char_buffer_string(char_buffer ,"Statistics: ",28,5);
 2041e0c:	01c00144 	movi	r7,5
 2041e10:	01800704 	movi	r6,28
 2041e14:	014081b4 	movhi	r5,518
 2041e18:	294ae804 	addi	r5,r5,11168
 2041e1c:	e13c9117 	ldw	r4,-3516(fp)
 2041e20:	20610b00 	call	20610b0 <alt_up_char_buffer_string>
	alt_up_char_buffer_string(char_buffer ,"Execution time:",28,15);
 2041e24:	01c003c4 	movi	r7,15
 2041e28:	01800704 	movi	r6,28
 2041e2c:	014081b4 	movhi	r5,518
 2041e30:	294b0904 	addi	r5,r5,11300
 2041e34:	e13c9117 	ldw	r4,-3516(fp)
 2041e38:	20610b00 	call	20610b0 <alt_up_char_buffer_string>
	sprintf(str, "%.3f s", time/1000);
 2041e3c:	01511eb4 	movhi	r5,17530
 2041e40:	e13c8d17 	ldw	r4,-3532(fp)
 2041e44:	204c0e00 	call	204c0e0 <__divsf3>
 2041e48:	1007883a 	mov	r3,r2
 2041e4c:	1805883a 	mov	r2,r3
 2041e50:	1009883a 	mov	r4,r2
 2041e54:	204f62c0 	call	204f62c <__extendsfdf2>
 2041e58:	1009883a 	mov	r4,r2
 2041e5c:	180b883a 	mov	r5,r3
 2041e60:	e0bce584 	addi	r2,fp,-3178
 2041e64:	200d883a 	mov	r6,r4
 2041e68:	280f883a 	mov	r7,r5
 2041e6c:	014081b4 	movhi	r5,518
 2041e70:	294b0d04 	addi	r5,r5,11316
 2041e74:	1009883a 	mov	r4,r2
 2041e78:	20507dc0 	call	20507dc <sprintf>
	alt_up_char_buffer_string(char_buffer ,str,28+30,15);
 2041e7c:	e0bce584 	addi	r2,fp,-3178
 2041e80:	01c003c4 	movi	r7,15
 2041e84:	01800e84 	movi	r6,58
 2041e88:	100b883a 	mov	r5,r2
 2041e8c:	e13c9117 	ldw	r4,-3516(fp)
 2041e90:	20610b00 	call	20610b0 <alt_up_char_buffer_string>

	alt_up_char_buffer_string(char_buffer ,"Avg time per sample:",28,17);
 2041e94:	01c00444 	movi	r7,17
 2041e98:	01800704 	movi	r6,28
 2041e9c:	014081b4 	movhi	r5,518
 2041ea0:	294aec04 	addi	r5,r5,11184
 2041ea4:	e13c9117 	ldw	r4,-3516(fp)
 2041ea8:	20610b00 	call	20610b0 <alt_up_char_buffer_string>
	sprintf(str, "%.3f ms", avgtime);
 2041eac:	e13c8417 	ldw	r4,-3568(fp)
 2041eb0:	204f62c0 	call	204f62c <__extendsfdf2>
 2041eb4:	1009883a 	mov	r4,r2
 2041eb8:	180b883a 	mov	r5,r3
 2041ebc:	e0bce584 	addi	r2,fp,-3178
 2041ec0:	200d883a 	mov	r6,r4
 2041ec4:	280f883a 	mov	r7,r5
 2041ec8:	014081b4 	movhi	r5,518
 2041ecc:	294af204 	addi	r5,r5,11208
 2041ed0:	1009883a 	mov	r4,r2
 2041ed4:	20507dc0 	call	20507dc <sprintf>
	alt_up_char_buffer_string(char_buffer ,str,28+30,17);
 2041ed8:	e0bce584 	addi	r2,fp,-3178
 2041edc:	01c00444 	movi	r7,17
 2041ee0:	01800e84 	movi	r6,58
 2041ee4:	100b883a 	mov	r5,r2
 2041ee8:	e13c9117 	ldw	r4,-3516(fp)
 2041eec:	20610b00 	call	20610b0 <alt_up_char_buffer_string>

	alt_up_char_buffer_string(char_buffer ,"label",10,22);
 2041ef0:	01c00584 	movi	r7,22
 2041ef4:	01800284 	movi	r6,10
 2041ef8:	014081b4 	movhi	r5,518
 2041efc:	294af404 	addi	r5,r5,11216
 2041f00:	e13c9117 	ldw	r4,-3516(fp)
 2041f04:	20610b00 	call	20610b0 <alt_up_char_buffer_string>
	alt_up_char_buffer_string(char_buffer ,"Precision",25,22);
 2041f08:	01c00584 	movi	r7,22
 2041f0c:	01800644 	movi	r6,25
 2041f10:	014081b4 	movhi	r5,518
 2041f14:	294af604 	addi	r5,r5,11224
 2041f18:	e13c9117 	ldw	r4,-3516(fp)
 2041f1c:	20610b00 	call	20610b0 <alt_up_char_buffer_string>
	alt_up_char_buffer_string(char_buffer ,"Recall",40,22);
 2041f20:	01c00584 	movi	r7,22
 2041f24:	01800a04 	movi	r6,40
 2041f28:	014081b4 	movhi	r5,518
 2041f2c:	294af904 	addi	r5,r5,11236
 2041f30:	e13c9117 	ldw	r4,-3516(fp)
 2041f34:	20610b00 	call	20610b0 <alt_up_char_buffer_string>
	alt_up_char_buffer_string(char_buffer ,"F1 Score",55,22);
 2041f38:	01c00584 	movi	r7,22
 2041f3c:	01800dc4 	movi	r6,55
 2041f40:	014081b4 	movhi	r5,518
 2041f44:	294afb04 	addi	r5,r5,11244
 2041f48:	e13c9117 	ldw	r4,-3516(fp)
 2041f4c:	20610b00 	call	20610b0 <alt_up_char_buffer_string>

	for (i = 0; i<10; i++){
 2041f50:	e03c8515 	stw	zero,-3564(fp)
 2041f54:	0000e606 	br	20422f0 <fast_version1+0xe8c>
		sprintf(str, "|%d ->", i);
 2041f58:	e0bce584 	addi	r2,fp,-3178
 2041f5c:	e1bc8517 	ldw	r6,-3564(fp)
 2041f60:	014081b4 	movhi	r5,518
 2041f64:	294afe04 	addi	r5,r5,11256
 2041f68:	1009883a 	mov	r4,r2
 2041f6c:	20507dc0 	call	20507dc <sprintf>
		alt_up_char_buffer_string(char_buffer ,str,10,24+i);
 2041f70:	e0bc8517 	ldw	r2,-3564(fp)
 2041f74:	10800604 	addi	r2,r2,24
 2041f78:	1007883a 	mov	r3,r2
 2041f7c:	e0bce584 	addi	r2,fp,-3178
 2041f80:	180f883a 	mov	r7,r3
 2041f84:	01800284 	movi	r6,10
 2041f88:	100b883a 	mov	r5,r2
 2041f8c:	e13c9117 	ldw	r4,-3516(fp)
 2041f90:	20610b00 	call	20610b0 <alt_up_char_buffer_string>

		precision[i]=TP[i]/(TP[i]+FP[i]);
 2041f94:	e0bc8517 	ldw	r2,-3564(fp)
 2041f98:	1085883a 	add	r2,r2,r2
 2041f9c:	1085883a 	add	r2,r2,r2
 2041fa0:	e0fc8304 	addi	r3,fp,-3572
 2041fa4:	1885883a 	add	r2,r3,r2
 2041fa8:	10802d04 	addi	r2,r2,180
 2041fac:	14000017 	ldw	r16,0(r2)
 2041fb0:	e0bc8517 	ldw	r2,-3564(fp)
 2041fb4:	1085883a 	add	r2,r2,r2
 2041fb8:	1085883a 	add	r2,r2,r2
 2041fbc:	e13c8304 	addi	r4,fp,-3572
 2041fc0:	2085883a 	add	r2,r4,r2
 2041fc4:	10802d04 	addi	r2,r2,180
 2041fc8:	10c00017 	ldw	r3,0(r2)
 2041fcc:	e0bc8517 	ldw	r2,-3564(fp)
 2041fd0:	1085883a 	add	r2,r2,r2
 2041fd4:	1085883a 	add	r2,r2,r2
 2041fd8:	e13c8304 	addi	r4,fp,-3572
 2041fdc:	2085883a 	add	r2,r4,r2
 2041fe0:	10803704 	addi	r2,r2,220
 2041fe4:	11000017 	ldw	r4,0(r2)
 2041fe8:	200b883a 	mov	r5,r4
 2041fec:	1809883a 	mov	r4,r3
 2041ff0:	204bc180 	call	204bc18 <__addsf3>
 2041ff4:	1007883a 	mov	r3,r2
 2041ff8:	1805883a 	mov	r2,r3
 2041ffc:	100b883a 	mov	r5,r2
 2042000:	8009883a 	mov	r4,r16
 2042004:	204c0e00 	call	204c0e0 <__divsf3>
 2042008:	1009883a 	mov	r4,r2
 204200c:	2007883a 	mov	r3,r4
 2042010:	e0bc8517 	ldw	r2,-3564(fp)
 2042014:	1085883a 	add	r2,r2,r2
 2042018:	1085883a 	add	r2,r2,r2
 204201c:	e13c8304 	addi	r4,fp,-3572
 2042020:	2085883a 	add	r2,r4,r2
 2042024:	10804104 	addi	r2,r2,260
 2042028:	10c00015 	stw	r3,0(r2)
		sprintf(str, "%.2f", precision[i]);
 204202c:	e0bc8517 	ldw	r2,-3564(fp)
 2042030:	1085883a 	add	r2,r2,r2
 2042034:	1085883a 	add	r2,r2,r2
 2042038:	e0fc8304 	addi	r3,fp,-3572
 204203c:	1885883a 	add	r2,r3,r2
 2042040:	10804104 	addi	r2,r2,260
 2042044:	10c00017 	ldw	r3,0(r2)
 2042048:	1809883a 	mov	r4,r3
 204204c:	204f62c0 	call	204f62c <__extendsfdf2>
 2042050:	1009883a 	mov	r4,r2
 2042054:	180b883a 	mov	r5,r3
 2042058:	e0bce584 	addi	r2,fp,-3178
 204205c:	200d883a 	mov	r6,r4
 2042060:	280f883a 	mov	r7,r5
 2042064:	014081b4 	movhi	r5,518
 2042068:	294b0004 	addi	r5,r5,11264
 204206c:	1009883a 	mov	r4,r2
 2042070:	20507dc0 	call	20507dc <sprintf>
		alt_up_char_buffer_string(char_buffer ,str,25,24+i);
 2042074:	e0bc8517 	ldw	r2,-3564(fp)
 2042078:	10800604 	addi	r2,r2,24
 204207c:	1007883a 	mov	r3,r2
 2042080:	e0bce584 	addi	r2,fp,-3178
 2042084:	180f883a 	mov	r7,r3
 2042088:	01800644 	movi	r6,25
 204208c:	100b883a 	mov	r5,r2
 2042090:	e13c9117 	ldw	r4,-3516(fp)
 2042094:	20610b00 	call	20610b0 <alt_up_char_buffer_string>

		recall[i]=TP[i]/(TP[i]+FN[i]);
 2042098:	e0bc8517 	ldw	r2,-3564(fp)
 204209c:	1085883a 	add	r2,r2,r2
 20420a0:	1085883a 	add	r2,r2,r2
 20420a4:	e13c8304 	addi	r4,fp,-3572
 20420a8:	2085883a 	add	r2,r4,r2
 20420ac:	10802d04 	addi	r2,r2,180
 20420b0:	14000017 	ldw	r16,0(r2)
 20420b4:	e0bc8517 	ldw	r2,-3564(fp)
 20420b8:	1085883a 	add	r2,r2,r2
 20420bc:	1085883a 	add	r2,r2,r2
 20420c0:	e0fc8304 	addi	r3,fp,-3572
 20420c4:	1885883a 	add	r2,r3,r2
 20420c8:	10802d04 	addi	r2,r2,180
 20420cc:	10c00017 	ldw	r3,0(r2)
 20420d0:	e0bc8517 	ldw	r2,-3564(fp)
 20420d4:	1085883a 	add	r2,r2,r2
 20420d8:	1085883a 	add	r2,r2,r2
 20420dc:	e13c8304 	addi	r4,fp,-3572
 20420e0:	2085883a 	add	r2,r4,r2
 20420e4:	10802304 	addi	r2,r2,140
 20420e8:	11000017 	ldw	r4,0(r2)
 20420ec:	200b883a 	mov	r5,r4
 20420f0:	1809883a 	mov	r4,r3
 20420f4:	204bc180 	call	204bc18 <__addsf3>
 20420f8:	1007883a 	mov	r3,r2
 20420fc:	1805883a 	mov	r2,r3
 2042100:	100b883a 	mov	r5,r2
 2042104:	8009883a 	mov	r4,r16
 2042108:	204c0e00 	call	204c0e0 <__divsf3>
 204210c:	1009883a 	mov	r4,r2
 2042110:	2007883a 	mov	r3,r4
 2042114:	e0bc8517 	ldw	r2,-3564(fp)
 2042118:	1085883a 	add	r2,r2,r2
 204211c:	1085883a 	add	r2,r2,r2
 2042120:	e13c8304 	addi	r4,fp,-3572
 2042124:	2085883a 	add	r2,r4,r2
 2042128:	10804b04 	addi	r2,r2,300
 204212c:	10c00015 	stw	r3,0(r2)
		sprintf(str, "%.2f", recall[i]);
 2042130:	e0bc8517 	ldw	r2,-3564(fp)
 2042134:	1085883a 	add	r2,r2,r2
 2042138:	1085883a 	add	r2,r2,r2
 204213c:	e0fc8304 	addi	r3,fp,-3572
 2042140:	1885883a 	add	r2,r3,r2
 2042144:	10804b04 	addi	r2,r2,300
 2042148:	10c00017 	ldw	r3,0(r2)
 204214c:	1809883a 	mov	r4,r3
 2042150:	204f62c0 	call	204f62c <__extendsfdf2>
 2042154:	1009883a 	mov	r4,r2
 2042158:	180b883a 	mov	r5,r3
 204215c:	e0bce584 	addi	r2,fp,-3178
 2042160:	200d883a 	mov	r6,r4
 2042164:	280f883a 	mov	r7,r5
 2042168:	014081b4 	movhi	r5,518
 204216c:	294b0004 	addi	r5,r5,11264
 2042170:	1009883a 	mov	r4,r2
 2042174:	20507dc0 	call	20507dc <sprintf>
		alt_up_char_buffer_string(char_buffer ,str,40,24+i);
 2042178:	e0bc8517 	ldw	r2,-3564(fp)
 204217c:	10800604 	addi	r2,r2,24
 2042180:	1007883a 	mov	r3,r2
 2042184:	e0bce584 	addi	r2,fp,-3178
 2042188:	180f883a 	mov	r7,r3
 204218c:	01800a04 	movi	r6,40
 2042190:	100b883a 	mov	r5,r2
 2042194:	e13c9117 	ldw	r4,-3516(fp)
 2042198:	20610b00 	call	20610b0 <alt_up_char_buffer_string>

		f1scores[i]=2*((precision[i]*recall[i])/(precision[i]+recall[i]));
 204219c:	e0bc8517 	ldw	r2,-3564(fp)
 20421a0:	1085883a 	add	r2,r2,r2
 20421a4:	1085883a 	add	r2,r2,r2
 20421a8:	e13c8304 	addi	r4,fp,-3572
 20421ac:	2085883a 	add	r2,r4,r2
 20421b0:	10804104 	addi	r2,r2,260
 20421b4:	10c00017 	ldw	r3,0(r2)
 20421b8:	e0bc8517 	ldw	r2,-3564(fp)
 20421bc:	1085883a 	add	r2,r2,r2
 20421c0:	1085883a 	add	r2,r2,r2
 20421c4:	e13c8304 	addi	r4,fp,-3572
 20421c8:	2085883a 	add	r2,r4,r2
 20421cc:	10804b04 	addi	r2,r2,300
 20421d0:	11000017 	ldw	r4,0(r2)
 20421d4:	200b883a 	mov	r5,r4
 20421d8:	1809883a 	mov	r4,r3
 20421dc:	204c5dc0 	call	204c5dc <__mulsf3>
 20421e0:	1007883a 	mov	r3,r2
 20421e4:	1821883a 	mov	r16,r3
 20421e8:	e0bc8517 	ldw	r2,-3564(fp)
 20421ec:	1085883a 	add	r2,r2,r2
 20421f0:	1085883a 	add	r2,r2,r2
 20421f4:	e0fc8304 	addi	r3,fp,-3572
 20421f8:	1885883a 	add	r2,r3,r2
 20421fc:	10804104 	addi	r2,r2,260
 2042200:	10c00017 	ldw	r3,0(r2)
 2042204:	e0bc8517 	ldw	r2,-3564(fp)
 2042208:	1085883a 	add	r2,r2,r2
 204220c:	1085883a 	add	r2,r2,r2
 2042210:	e13c8304 	addi	r4,fp,-3572
 2042214:	2085883a 	add	r2,r4,r2
 2042218:	10804b04 	addi	r2,r2,300
 204221c:	11000017 	ldw	r4,0(r2)
 2042220:	200b883a 	mov	r5,r4
 2042224:	1809883a 	mov	r4,r3
 2042228:	204bc180 	call	204bc18 <__addsf3>
 204222c:	1007883a 	mov	r3,r2
 2042230:	1805883a 	mov	r2,r3
 2042234:	100b883a 	mov	r5,r2
 2042238:	8009883a 	mov	r4,r16
 204223c:	204c0e00 	call	204c0e0 <__divsf3>
 2042240:	1007883a 	mov	r3,r2
 2042244:	1805883a 	mov	r2,r3
 2042248:	100b883a 	mov	r5,r2
 204224c:	1009883a 	mov	r4,r2
 2042250:	204bc180 	call	204bc18 <__addsf3>
 2042254:	1009883a 	mov	r4,r2
 2042258:	2007883a 	mov	r3,r4
 204225c:	e0bc8517 	ldw	r2,-3564(fp)
 2042260:	1085883a 	add	r2,r2,r2
 2042264:	1085883a 	add	r2,r2,r2
 2042268:	e13c8304 	addi	r4,fp,-3572
 204226c:	2085883a 	add	r2,r4,r2
 2042270:	10805504 	addi	r2,r2,340
 2042274:	10c00015 	stw	r3,0(r2)
		sprintf(str, "%.2f", f1scores[i]);
 2042278:	e0bc8517 	ldw	r2,-3564(fp)
 204227c:	1085883a 	add	r2,r2,r2
 2042280:	1085883a 	add	r2,r2,r2
 2042284:	e0fc8304 	addi	r3,fp,-3572
 2042288:	1885883a 	add	r2,r3,r2
 204228c:	10805504 	addi	r2,r2,340
 2042290:	10c00017 	ldw	r3,0(r2)
 2042294:	1809883a 	mov	r4,r3
 2042298:	204f62c0 	call	204f62c <__extendsfdf2>
 204229c:	1009883a 	mov	r4,r2
 20422a0:	180b883a 	mov	r5,r3
 20422a4:	e0bce584 	addi	r2,fp,-3178
 20422a8:	200d883a 	mov	r6,r4
 20422ac:	280f883a 	mov	r7,r5
 20422b0:	014081b4 	movhi	r5,518
 20422b4:	294b0004 	addi	r5,r5,11264
 20422b8:	1009883a 	mov	r4,r2
 20422bc:	20507dc0 	call	20507dc <sprintf>
		alt_up_char_buffer_string(char_buffer ,str,55,24+i);
 20422c0:	e0bc8517 	ldw	r2,-3564(fp)
 20422c4:	10800604 	addi	r2,r2,24
 20422c8:	1007883a 	mov	r3,r2
 20422cc:	e0bce584 	addi	r2,fp,-3178
 20422d0:	180f883a 	mov	r7,r3
 20422d4:	01800dc4 	movi	r6,55
 20422d8:	100b883a 	mov	r5,r2
 20422dc:	e13c9117 	ldw	r4,-3516(fp)
 20422e0:	20610b00 	call	20610b0 <alt_up_char_buffer_string>
	alt_up_char_buffer_string(char_buffer ,"label",10,22);
	alt_up_char_buffer_string(char_buffer ,"Precision",25,22);
	alt_up_char_buffer_string(char_buffer ,"Recall",40,22);
	alt_up_char_buffer_string(char_buffer ,"F1 Score",55,22);

	for (i = 0; i<10; i++){
 20422e4:	e0bc8517 	ldw	r2,-3564(fp)
 20422e8:	10800044 	addi	r2,r2,1
 20422ec:	e0bc8515 	stw	r2,-3564(fp)
 20422f0:	e0bc8517 	ldw	r2,-3564(fp)
 20422f4:	10800290 	cmplti	r2,r2,10
 20422f8:	103f171e 	bne	r2,zero,2041f58 <__alt_data_end+0xfffc1f58>
		f1scores[i]=2*((precision[i]*recall[i])/(precision[i]+recall[i]));
		sprintf(str, "%.2f", f1scores[i]);
		alt_up_char_buffer_string(char_buffer ,str,55,24+i);
	}

	alt_up_char_buffer_string(char_buffer ,"press key[0] to restart ",28,48);
 20422fc:	01c00c04 	movi	r7,48
 2042300:	01800704 	movi	r6,28
 2042304:	014081b4 	movhi	r5,518
 2042308:	294b0204 	addi	r5,r5,11272
 204230c:	e13c9117 	ldw	r4,-3516(fp)
 2042310:	20610b00 	call	20610b0 <alt_up_char_buffer_string>
	free(pixels);
 2042314:	e13c8c17 	ldw	r4,-3536(fp)
 2042318:	204f9840 	call	204f984 <free>
	return 1;
 204231c:	00800044 	movi	r2,1
}
 2042320:	e6ffff04 	addi	sp,fp,-4
 2042324:	dfc00217 	ldw	ra,8(sp)
 2042328:	df000117 	ldw	fp,4(sp)
 204232c:	dc000017 	ldw	r16,0(sp)
 2042330:	dec00704 	addi	sp,sp,28
 2042334:	f800283a 	ret

02042338 <fast_version>:
int fast_version(const neural_network_t network,FAT_HANDLE hFat, short unsigned int nimages ){
 2042338:	defc8b04 	addi	sp,sp,-3540
 204233c:	dfc37015 	stw	ra,3520(sp)
 2042340:	df036f15 	stw	fp,3516(sp)
 2042344:	dc036e15 	stw	r16,3512(sp)
 2042348:	df036f04 	addi	fp,sp,3516
 204234c:	e1000215 	stw	r4,8(fp)
 2042350:	e1400315 	stw	r5,12(fp)
 2042354:	e1800415 	stw	r6,16(fp)
 2042358:	e1c00515 	stw	r7,20(fp)
 204235c:	e09ead17 	ldw	r2,31412(fp)
 2042360:	e0bffe0d 	sth	r2,-8(fp)
	int *pixels = NULL;
 2042364:	e03c9a15 	stw	zero,-3480(fp)
	pixels = (int *) malloc(sizeof(int)*784);
 2042368:	01031004 	movi	r4,3136
 204236c:	204f9700 	call	204f970 <malloc>
 2042370:	e0bc9a15 	stw	r2,-3480(fp)
	float FP[10];

	float precision[10];
	float recall[10];
	float f1scores[10];
	for (i = 0; i<10;i++){
 2042374:	e03c9315 	stw	zero,-3508(fp)
 2042378:	00002d06 	br	2042430 <fast_version+0xf8>
		precision[i]=0;
 204237c:	e0bc9317 	ldw	r2,-3508(fp)
 2042380:	1085883a 	add	r2,r2,r2
 2042384:	1085883a 	add	r2,r2,r2
 2042388:	e0fc9104 	addi	r3,fp,-3516
 204238c:	1885883a 	add	r2,r3,r2
 2042390:	10803604 	addi	r2,r2,216
 2042394:	10000015 	stw	zero,0(r2)
		recall[i]=0;
 2042398:	e0bc9317 	ldw	r2,-3508(fp)
 204239c:	1085883a 	add	r2,r2,r2
 20423a0:	1085883a 	add	r2,r2,r2
 20423a4:	e13c9104 	addi	r4,fp,-3516
 20423a8:	2085883a 	add	r2,r4,r2
 20423ac:	10804004 	addi	r2,r2,256
 20423b0:	10000015 	stw	zero,0(r2)
		f1scores[i]=0;
 20423b4:	e0bc9317 	ldw	r2,-3508(fp)
 20423b8:	1085883a 	add	r2,r2,r2
 20423bc:	1085883a 	add	r2,r2,r2
 20423c0:	e0fc9104 	addi	r3,fp,-3516
 20423c4:	1885883a 	add	r2,r3,r2
 20423c8:	10804a04 	addi	r2,r2,296
 20423cc:	10000015 	stw	zero,0(r2)
		FN[i]=0;
 20423d0:	e0bc9317 	ldw	r2,-3508(fp)
 20423d4:	1085883a 	add	r2,r2,r2
 20423d8:	1085883a 	add	r2,r2,r2
 20423dc:	e13c9104 	addi	r4,fp,-3516
 20423e0:	2085883a 	add	r2,r4,r2
 20423e4:	10801804 	addi	r2,r2,96
 20423e8:	10000015 	stw	zero,0(r2)
		TP[i]=0;
 20423ec:	e0bc9317 	ldw	r2,-3508(fp)
 20423f0:	1085883a 	add	r2,r2,r2
 20423f4:	1085883a 	add	r2,r2,r2
 20423f8:	e0fc9104 	addi	r3,fp,-3516
 20423fc:	1885883a 	add	r2,r3,r2
 2042400:	10802204 	addi	r2,r2,136
 2042404:	10000015 	stw	zero,0(r2)
		FP[i]=0;
 2042408:	e0bc9317 	ldw	r2,-3508(fp)
 204240c:	1085883a 	add	r2,r2,r2
 2042410:	1085883a 	add	r2,r2,r2
 2042414:	e13c9104 	addi	r4,fp,-3516
 2042418:	2085883a 	add	r2,r4,r2
 204241c:	10802c04 	addi	r2,r2,176
 2042420:	10000015 	stw	zero,0(r2)
	float FP[10];

	float precision[10];
	float recall[10];
	float f1scores[10];
	for (i = 0; i<10;i++){
 2042424:	e0bc9317 	ldw	r2,-3508(fp)
 2042428:	10800044 	addi	r2,r2,1
 204242c:	e0bc9315 	stw	r2,-3508(fp)
 2042430:	e0bc9317 	ldw	r2,-3508(fp)
 2042434:	10800290 	cmplti	r2,r2,10
 2042438:	103fd01e 	bne	r2,zero,204237c <__alt_data_end+0xfffc237c>
		TP[i]=0;
		FP[i]=0;
	}

	char nome[14];
	time=0;
 204243c:	e03c9b15 	stw	zero,-3476(fp)
	avgtime=0;
 2042440:	e03c9215 	stw	zero,-3512(fp)
	freq = alt_timestamp_freq();
 2042444:	20403880 	call	2040388 <alt_timestamp_freq>
 2042448:	1009883a 	mov	r4,r2
 204244c:	204cfe00 	call	204cfe0 <__floatunsisf>
 2042450:	1007883a 	mov	r3,r2
 2042454:	e0fc9c15 	stw	r3,-3472(fp)
	for (i=21; i<(nimages); i++){
 2042458:	00800544 	movi	r2,21
 204245c:	e0bc9315 	stw	r2,-3508(fp)
 2042460:	00015e06 	br	20429dc <fast_version+0x6a4>

		snprintf(nome, 14, "%d.txt", i);//
 2042464:	e0bce504 	addi	r2,fp,-3180
 2042468:	e1fc9317 	ldw	r7,-3508(fp)
 204246c:	018081b4 	movhi	r6,518
 2042470:	318ae604 	addi	r6,r6,11160
 2042474:	01400384 	movi	r5,14
 2042478:	1009883a 	mov	r4,r2
 204247c:	20506a00 	call	20506a0 <snprintf>
		label = readimage(hFat,pixels,nome);
 2042480:	e0bce504 	addi	r2,fp,-3180
 2042484:	100d883a 	mov	r6,r2
 2042488:	e17c9a17 	ldw	r5,-3480(fp)
 204248c:	e11eac17 	ldw	r4,31408(fp)
 2042490:	204430c0 	call	204430c <readimage>
 2042494:	e0bc9d15 	stw	r2,-3468(fp)
	    int ki, kj;
	    float ksum, kmax;

	    alt_timestamp_start();
 2042498:	20402900 	call	2040290 <alt_timestamp_start>
		//normalize pixel values between 0 and 1
		float f[784];
		for (j = 0; j<784;j++){
 204249c:	e03c9415 	stw	zero,-3504(fp)
 20424a0:	00002306 	br	2042530 <fast_version+0x1f8>
			f[j]=pixels[j]/255.0;
 20424a4:	e0bc9417 	ldw	r2,-3504(fp)
 20424a8:	1085883a 	add	r2,r2,r2
 20424ac:	1085883a 	add	r2,r2,r2
 20424b0:	1007883a 	mov	r3,r2
 20424b4:	e0bc9a17 	ldw	r2,-3480(fp)
 20424b8:	10c5883a 	add	r2,r2,r3
 20424bc:	10800017 	ldw	r2,0(r2)
 20424c0:	1009883a 	mov	r4,r2
 20424c4:	204f5500 	call	204f550 <__floatsidf>
 20424c8:	1011883a 	mov	r8,r2
 20424cc:	1813883a 	mov	r9,r3
 20424d0:	000d883a 	mov	r6,zero
 20424d4:	01d01c34 	movhi	r7,16496
 20424d8:	39f80004 	addi	r7,r7,-8192
 20424dc:	4009883a 	mov	r4,r8
 20424e0:	480b883a 	mov	r5,r9
 20424e4:	204d97c0 	call	204d97c <__divdf3>
 20424e8:	1009883a 	mov	r4,r2
 20424ec:	180b883a 	mov	r5,r3
 20424f0:	2005883a 	mov	r2,r4
 20424f4:	2807883a 	mov	r3,r5
 20424f8:	1009883a 	mov	r4,r2
 20424fc:	180b883a 	mov	r5,r3
 2042500:	204f73c0 	call	204f73c <__truncdfsf2>
 2042504:	1007883a 	mov	r3,r2
 2042508:	e0bc9417 	ldw	r2,-3504(fp)
 204250c:	1085883a 	add	r2,r2,r2
 2042510:	1085883a 	add	r2,r2,r2
 2042514:	e13c9104 	addi	r4,fp,-3516
 2042518:	2085883a 	add	r2,r4,r2
 204251c:	10805d04 	addi	r2,r2,372
 2042520:	10c00015 	stw	r3,0(r2)
	    float ksum, kmax;

	    alt_timestamp_start();
		//normalize pixel values between 0 and 1
		float f[784];
		for (j = 0; j<784;j++){
 2042524:	e0bc9417 	ldw	r2,-3504(fp)
 2042528:	10800044 	addi	r2,r2,1
 204252c:	e0bc9415 	stw	r2,-3504(fp)
 2042530:	e0bc9417 	ldw	r2,-3504(fp)
 2042534:	1080c410 	cmplti	r2,r2,784
 2042538:	103fda1e 	bne	r2,zero,20424a4 <__alt_data_end+0xfffc24a4>
		}

		// Calculate the activations for each image using the neural network
		//start timer

	    for (ki = 0; ki < MNIST_LABELS; ki++) {
 204253c:	e03c9615 	stw	zero,-3496(fp)
 2042540:	00004106 	br	2042648 <fast_version+0x310>
	    	activations[ki] = network.b[ki];
 2042544:	e0bc9617 	ldw	r2,-3496(fp)
 2042548:	1085883a 	add	r2,r2,r2
 204254c:	1085883a 	add	r2,r2,r2
 2042550:	e0c00204 	addi	r3,fp,8
 2042554:	1885883a 	add	r2,r3,r2
 2042558:	10c00017 	ldw	r3,0(r2)
 204255c:	e0bc9617 	ldw	r2,-3496(fp)
 2042560:	1085883a 	add	r2,r2,r2
 2042564:	1085883a 	add	r2,r2,r2
 2042568:	e13c9104 	addi	r4,fp,-3516
 204256c:	2085883a 	add	r2,r4,r2
 2042570:	10800e04 	addi	r2,r2,56
 2042574:	10c00015 	stw	r3,0(r2)
	        for (kj = 0; kj < MNIST_IMAGE_SIZE; kj++) {
 2042578:	e03c9715 	stw	zero,-3492(fp)
 204257c:	00002c06 	br	2042630 <fast_version+0x2f8>
	            activations[ki] += network.W[ki][kj] * f[kj];
 2042580:	e0bc9617 	ldw	r2,-3496(fp)
 2042584:	1085883a 	add	r2,r2,r2
 2042588:	1085883a 	add	r2,r2,r2
 204258c:	e0fc9104 	addi	r3,fp,-3516
 2042590:	1885883a 	add	r2,r3,r2
 2042594:	10800e04 	addi	r2,r2,56
 2042598:	14000017 	ldw	r16,0(r2)
 204259c:	e0bc9617 	ldw	r2,-3496(fp)
 20425a0:	10c0c424 	muli	r3,r2,784
 20425a4:	e0bc9717 	ldw	r2,-3492(fp)
 20425a8:	1885883a 	add	r2,r3,r2
 20425ac:	10800284 	addi	r2,r2,10
 20425b0:	1085883a 	add	r2,r2,r2
 20425b4:	1085883a 	add	r2,r2,r2
 20425b8:	e1000204 	addi	r4,fp,8
 20425bc:	2085883a 	add	r2,r4,r2
 20425c0:	10c00017 	ldw	r3,0(r2)
 20425c4:	e0bc9717 	ldw	r2,-3492(fp)
 20425c8:	1085883a 	add	r2,r2,r2
 20425cc:	1085883a 	add	r2,r2,r2
 20425d0:	e13c9104 	addi	r4,fp,-3516
 20425d4:	2085883a 	add	r2,r4,r2
 20425d8:	10805d04 	addi	r2,r2,372
 20425dc:	11000017 	ldw	r4,0(r2)
 20425e0:	200b883a 	mov	r5,r4
 20425e4:	1809883a 	mov	r4,r3
 20425e8:	204c5dc0 	call	204c5dc <__mulsf3>
 20425ec:	1007883a 	mov	r3,r2
 20425f0:	1805883a 	mov	r2,r3
 20425f4:	100b883a 	mov	r5,r2
 20425f8:	8009883a 	mov	r4,r16
 20425fc:	204bc180 	call	204bc18 <__addsf3>
 2042600:	1009883a 	mov	r4,r2
 2042604:	2007883a 	mov	r3,r4
 2042608:	e0bc9617 	ldw	r2,-3496(fp)
 204260c:	1085883a 	add	r2,r2,r2
 2042610:	1085883a 	add	r2,r2,r2
 2042614:	e13c9104 	addi	r4,fp,-3516
 2042618:	2085883a 	add	r2,r4,r2
 204261c:	10800e04 	addi	r2,r2,56
 2042620:	10c00015 	stw	r3,0(r2)
		// Calculate the activations for each image using the neural network
		//start timer

	    for (ki = 0; ki < MNIST_LABELS; ki++) {
	    	activations[ki] = network.b[ki];
	        for (kj = 0; kj < MNIST_IMAGE_SIZE; kj++) {
 2042624:	e0bc9717 	ldw	r2,-3492(fp)
 2042628:	10800044 	addi	r2,r2,1
 204262c:	e0bc9715 	stw	r2,-3492(fp)
 2042630:	e0bc9717 	ldw	r2,-3492(fp)
 2042634:	1080c410 	cmplti	r2,r2,784
 2042638:	103fd11e 	bne	r2,zero,2042580 <__alt_data_end+0xfffc2580>
		}

		// Calculate the activations for each image using the neural network
		//start timer

	    for (ki = 0; ki < MNIST_LABELS; ki++) {
 204263c:	e0bc9617 	ldw	r2,-3496(fp)
 2042640:	10800044 	addi	r2,r2,1
 2042644:	e0bc9615 	stw	r2,-3496(fp)
 2042648:	e0bc9617 	ldw	r2,-3496(fp)
 204264c:	10800290 	cmplti	r2,r2,10
 2042650:	103fbc1e 	bne	r2,zero,2042544 <__alt_data_end+0xfffc2544>
	    	activations[ki] = network.b[ki];
	        for (kj = 0; kj < MNIST_IMAGE_SIZE; kj++) {
	            activations[ki] += network.W[ki][kj] * f[kj];
	        }
	    }
	    time = alt_timestamp();//end timer
 2042654:	20403080 	call	2040308 <alt_timestamp>
 2042658:	1009883a 	mov	r4,r2
 204265c:	204cfe00 	call	204cfe0 <__floatunsisf>
 2042660:	1007883a 	mov	r3,r2
 2042664:	e0fc9b15 	stw	r3,-3476(fp)

	    for (ki = 1, kmax = activations[0]; ki < MNIST_LABELS; ki++) {
 2042668:	00800044 	movi	r2,1
 204266c:	e0bc9615 	stw	r2,-3496(fp)
 2042670:	e0bc9f17 	ldw	r2,-3460(fp)
 2042674:	e0bc9915 	stw	r2,-3484(fp)
 2042678:	00001606 	br	20426d4 <fast_version+0x39c>
	        if (activations[ki] > kmax) {
 204267c:	e0bc9617 	ldw	r2,-3496(fp)
 2042680:	1085883a 	add	r2,r2,r2
 2042684:	1085883a 	add	r2,r2,r2
 2042688:	e0fc9104 	addi	r3,fp,-3516
 204268c:	1885883a 	add	r2,r3,r2
 2042690:	10800e04 	addi	r2,r2,56
 2042694:	10c00017 	ldw	r3,0(r2)
 2042698:	e17c9917 	ldw	r5,-3484(fp)
 204269c:	1809883a 	mov	r4,r3
 20426a0:	204c5200 	call	204c520 <__gesf2>
 20426a4:	0080080e 	bge	zero,r2,20426c8 <fast_version+0x390>
	            kmax = activations[ki];
 20426a8:	e0bc9617 	ldw	r2,-3496(fp)
 20426ac:	1085883a 	add	r2,r2,r2
 20426b0:	1085883a 	add	r2,r2,r2
 20426b4:	e13c9104 	addi	r4,fp,-3516
 20426b8:	2085883a 	add	r2,r4,r2
 20426bc:	10800e04 	addi	r2,r2,56
 20426c0:	10800017 	ldw	r2,0(r2)
 20426c4:	e0bc9915 	stw	r2,-3484(fp)
	            activations[ki] += network.W[ki][kj] * f[kj];
	        }
	    }
	    time = alt_timestamp();//end timer

	    for (ki = 1, kmax = activations[0]; ki < MNIST_LABELS; ki++) {
 20426c8:	e0bc9617 	ldw	r2,-3496(fp)
 20426cc:	10800044 	addi	r2,r2,1
 20426d0:	e0bc9615 	stw	r2,-3496(fp)
 20426d4:	e0bc9617 	ldw	r2,-3496(fp)
 20426d8:	10800290 	cmplti	r2,r2,10
 20426dc:	103fe71e 	bne	r2,zero,204267c <__alt_data_end+0xfffc267c>
	        if (activations[ki] > kmax) {
	            kmax = activations[ki];
	        }
	    }

	    for (ki = 0, ksum = 0; ki < MNIST_LABELS; ki++) {
 20426e0:	e03c9615 	stw	zero,-3496(fp)
 20426e4:	e03c9815 	stw	zero,-3488(fp)
 20426e8:	00002f06 	br	20427a8 <fast_version+0x470>
	        activations[ki] = exp(activations[ki] - kmax);
 20426ec:	e0bc9617 	ldw	r2,-3496(fp)
 20426f0:	1085883a 	add	r2,r2,r2
 20426f4:	1085883a 	add	r2,r2,r2
 20426f8:	e0fc9104 	addi	r3,fp,-3516
 20426fc:	1885883a 	add	r2,r3,r2
 2042700:	10800e04 	addi	r2,r2,56
 2042704:	10c00017 	ldw	r3,0(r2)
 2042708:	e17c9917 	ldw	r5,-3484(fp)
 204270c:	1809883a 	mov	r4,r3
 2042710:	204c9d80 	call	204c9d8 <__subsf3>
 2042714:	1007883a 	mov	r3,r2
 2042718:	1805883a 	mov	r2,r3
 204271c:	1009883a 	mov	r4,r2
 2042720:	204f62c0 	call	204f62c <__extendsfdf2>
 2042724:	100b883a 	mov	r5,r2
 2042728:	180d883a 	mov	r6,r3
 204272c:	2809883a 	mov	r4,r5
 2042730:	300b883a 	mov	r5,r6
 2042734:	20497a00 	call	20497a0 <exp>
 2042738:	100b883a 	mov	r5,r2
 204273c:	180d883a 	mov	r6,r3
 2042740:	2809883a 	mov	r4,r5
 2042744:	300b883a 	mov	r5,r6
 2042748:	204f73c0 	call	204f73c <__truncdfsf2>
 204274c:	1007883a 	mov	r3,r2
 2042750:	e0bc9617 	ldw	r2,-3496(fp)
 2042754:	1085883a 	add	r2,r2,r2
 2042758:	1085883a 	add	r2,r2,r2
 204275c:	e13c9104 	addi	r4,fp,-3516
 2042760:	2085883a 	add	r2,r4,r2
 2042764:	10800e04 	addi	r2,r2,56
 2042768:	10c00015 	stw	r3,0(r2)
	        ksum += activations[ki];
 204276c:	e0bc9617 	ldw	r2,-3496(fp)
 2042770:	1085883a 	add	r2,r2,r2
 2042774:	1085883a 	add	r2,r2,r2
 2042778:	e0fc9104 	addi	r3,fp,-3516
 204277c:	1885883a 	add	r2,r3,r2
 2042780:	10800e04 	addi	r2,r2,56
 2042784:	10c00017 	ldw	r3,0(r2)
 2042788:	180b883a 	mov	r5,r3
 204278c:	e13c9817 	ldw	r4,-3488(fp)
 2042790:	204bc180 	call	204bc18 <__addsf3>
 2042794:	1007883a 	mov	r3,r2
 2042798:	e0fc9815 	stw	r3,-3488(fp)
	        if (activations[ki] > kmax) {
	            kmax = activations[ki];
	        }
	    }

	    for (ki = 0, ksum = 0; ki < MNIST_LABELS; ki++) {
 204279c:	e0bc9617 	ldw	r2,-3496(fp)
 20427a0:	10800044 	addi	r2,r2,1
 20427a4:	e0bc9615 	stw	r2,-3496(fp)
 20427a8:	e0bc9617 	ldw	r2,-3496(fp)
 20427ac:	10800290 	cmplti	r2,r2,10
 20427b0:	103fce1e 	bne	r2,zero,20426ec <__alt_data_end+0xfffc26ec>
	        activations[ki] = exp(activations[ki] - kmax);
	        ksum += activations[ki];
	    }

	    for (ki = 0; ki < MNIST_LABELS; ki++) {
 20427b4:	e03c9615 	stw	zero,-3496(fp)
 20427b8:	00001606 	br	2042814 <fast_version+0x4dc>
	        activations[ki] /= ksum;
 20427bc:	e0bc9617 	ldw	r2,-3496(fp)
 20427c0:	1085883a 	add	r2,r2,r2
 20427c4:	1085883a 	add	r2,r2,r2
 20427c8:	e13c9104 	addi	r4,fp,-3516
 20427cc:	2085883a 	add	r2,r4,r2
 20427d0:	10800e04 	addi	r2,r2,56
 20427d4:	10c00017 	ldw	r3,0(r2)
 20427d8:	e17c9817 	ldw	r5,-3488(fp)
 20427dc:	1809883a 	mov	r4,r3
 20427e0:	204c0e00 	call	204c0e0 <__divsf3>
 20427e4:	1009883a 	mov	r4,r2
 20427e8:	2007883a 	mov	r3,r4
 20427ec:	e0bc9617 	ldw	r2,-3496(fp)
 20427f0:	1085883a 	add	r2,r2,r2
 20427f4:	1085883a 	add	r2,r2,r2
 20427f8:	e13c9104 	addi	r4,fp,-3516
 20427fc:	2085883a 	add	r2,r4,r2
 2042800:	10800e04 	addi	r2,r2,56
 2042804:	10c00015 	stw	r3,0(r2)
	    for (ki = 0, ksum = 0; ki < MNIST_LABELS; ki++) {
	        activations[ki] = exp(activations[ki] - kmax);
	        ksum += activations[ki];
	    }

	    for (ki = 0; ki < MNIST_LABELS; ki++) {
 2042808:	e0bc9617 	ldw	r2,-3496(fp)
 204280c:	10800044 	addi	r2,r2,1
 2042810:	e0bc9615 	stw	r2,-3496(fp)
 2042814:	e0bc9617 	ldw	r2,-3496(fp)
 2042818:	10800290 	cmplti	r2,r2,10
 204281c:	103fe71e 	bne	r2,zero,20427bc <__alt_data_end+0xfffc27bc>
	        activations[ki] /= ksum;
	    }


		// Set predict to the index of the greatest activation
		for (j = 0, predict = 0, max_activation = activations[0]; j < MNIST_LABELS; j++) {
 2042820:	e03c9415 	stw	zero,-3504(fp)
 2042824:	e03c9515 	stw	zero,-3500(fp)
 2042828:	e0bc9f17 	ldw	r2,-3460(fp)
 204282c:	e0bc9115 	stw	r2,-3516(fp)
 2042830:	00001806 	br	2042894 <fast_version+0x55c>
			if (max_activation < activations[j]) {
 2042834:	e0bc9417 	ldw	r2,-3504(fp)
 2042838:	1085883a 	add	r2,r2,r2
 204283c:	1085883a 	add	r2,r2,r2
 2042840:	e0fc9104 	addi	r3,fp,-3516
 2042844:	1885883a 	add	r2,r3,r2
 2042848:	10800e04 	addi	r2,r2,56
 204284c:	10c00017 	ldw	r3,0(r2)
 2042850:	e17c9117 	ldw	r5,-3516(fp)
 2042854:	1809883a 	mov	r4,r3
 2042858:	204c5200 	call	204c520 <__gesf2>
 204285c:	00800a0e 	bge	zero,r2,2042888 <fast_version+0x550>
				max_activation = activations[j];
 2042860:	e0bc9417 	ldw	r2,-3504(fp)
 2042864:	1085883a 	add	r2,r2,r2
 2042868:	1085883a 	add	r2,r2,r2
 204286c:	e13c9104 	addi	r4,fp,-3516
 2042870:	2085883a 	add	r2,r4,r2
 2042874:	10800e04 	addi	r2,r2,56
 2042878:	10800017 	ldw	r2,0(r2)
 204287c:	e0bc9115 	stw	r2,-3516(fp)
				predict = j;
 2042880:	e0bc9417 	ldw	r2,-3504(fp)
 2042884:	e0bc9515 	stw	r2,-3500(fp)
	        activations[ki] /= ksum;
	    }


		// Set predict to the index of the greatest activation
		for (j = 0, predict = 0, max_activation = activations[0]; j < MNIST_LABELS; j++) {
 2042888:	e0bc9417 	ldw	r2,-3504(fp)
 204288c:	10800044 	addi	r2,r2,1
 2042890:	e0bc9415 	stw	r2,-3504(fp)
 2042894:	e0bc9417 	ldw	r2,-3504(fp)
 2042898:	10800290 	cmplti	r2,r2,10
 204289c:	103fe51e 	bne	r2,zero,2042834 <__alt_data_end+0xfffc2834>
				max_activation = activations[j];
				predict = j;
			}
		}

		if(label == predict){
 20428a0:	e0fc9d17 	ldw	r3,-3468(fp)
 20428a4:	e0bc9517 	ldw	r2,-3500(fp)
 20428a8:	1880141e 	bne	r3,r2,20428fc <fast_version+0x5c4>
			TP[label]+=1;
 20428ac:	e0bc9d17 	ldw	r2,-3468(fp)
 20428b0:	1085883a 	add	r2,r2,r2
 20428b4:	1085883a 	add	r2,r2,r2
 20428b8:	e0fc9104 	addi	r3,fp,-3516
 20428bc:	1885883a 	add	r2,r3,r2
 20428c0:	10802204 	addi	r2,r2,136
 20428c4:	10c00017 	ldw	r3,0(r2)
 20428c8:	014fe034 	movhi	r5,16256
 20428cc:	1809883a 	mov	r4,r3
 20428d0:	204bc180 	call	204bc18 <__addsf3>
 20428d4:	1009883a 	mov	r4,r2
 20428d8:	2007883a 	mov	r3,r4
 20428dc:	e0bc9d17 	ldw	r2,-3468(fp)
 20428e0:	1085883a 	add	r2,r2,r2
 20428e4:	1085883a 	add	r2,r2,r2
 20428e8:	e13c9104 	addi	r4,fp,-3516
 20428ec:	2085883a 	add	r2,r4,r2
 20428f0:	10802204 	addi	r2,r2,136
 20428f4:	10c00015 	stw	r3,0(r2)
 20428f8:	00002606 	br	2042994 <fast_version+0x65c>
		}
		else{
			FN[label]+=1;
 20428fc:	e0bc9d17 	ldw	r2,-3468(fp)
 2042900:	1085883a 	add	r2,r2,r2
 2042904:	1085883a 	add	r2,r2,r2
 2042908:	e0fc9104 	addi	r3,fp,-3516
 204290c:	1885883a 	add	r2,r3,r2
 2042910:	10801804 	addi	r2,r2,96
 2042914:	10c00017 	ldw	r3,0(r2)
 2042918:	014fe034 	movhi	r5,16256
 204291c:	1809883a 	mov	r4,r3
 2042920:	204bc180 	call	204bc18 <__addsf3>
 2042924:	1009883a 	mov	r4,r2
 2042928:	2007883a 	mov	r3,r4
 204292c:	e0bc9d17 	ldw	r2,-3468(fp)
 2042930:	1085883a 	add	r2,r2,r2
 2042934:	1085883a 	add	r2,r2,r2
 2042938:	e13c9104 	addi	r4,fp,-3516
 204293c:	2085883a 	add	r2,r4,r2
 2042940:	10801804 	addi	r2,r2,96
 2042944:	10c00015 	stw	r3,0(r2)
			FP[predict]+=1;
 2042948:	e0bc9517 	ldw	r2,-3500(fp)
 204294c:	1085883a 	add	r2,r2,r2
 2042950:	1085883a 	add	r2,r2,r2
 2042954:	e0fc9104 	addi	r3,fp,-3516
 2042958:	1885883a 	add	r2,r3,r2
 204295c:	10802c04 	addi	r2,r2,176
 2042960:	10c00017 	ldw	r3,0(r2)
 2042964:	014fe034 	movhi	r5,16256
 2042968:	1809883a 	mov	r4,r3
 204296c:	204bc180 	call	204bc18 <__addsf3>
 2042970:	1009883a 	mov	r4,r2
 2042974:	2007883a 	mov	r3,r4
 2042978:	e0bc9517 	ldw	r2,-3500(fp)
 204297c:	1085883a 	add	r2,r2,r2
 2042980:	1085883a 	add	r2,r2,r2
 2042984:	e13c9104 	addi	r4,fp,-3516
 2042988:	2085883a 	add	r2,r4,r2
 204298c:	10802c04 	addi	r2,r2,176
 2042990:	10c00015 	stw	r3,0(r2)
		}

		time = (time *1000 ) / freq; //get execution time (ms)
 2042994:	01511eb4 	movhi	r5,17530
 2042998:	e13c9b17 	ldw	r4,-3476(fp)
 204299c:	204c5dc0 	call	204c5dc <__mulsf3>
 20429a0:	1007883a 	mov	r3,r2
 20429a4:	1805883a 	mov	r2,r3
 20429a8:	e17c9c17 	ldw	r5,-3472(fp)
 20429ac:	1009883a 	mov	r4,r2
 20429b0:	204c0e00 	call	204c0e0 <__divsf3>
 20429b4:	1007883a 	mov	r3,r2
 20429b8:	e0fc9b15 	stw	r3,-3476(fp)
		avgtime += time;
 20429bc:	e17c9b17 	ldw	r5,-3476(fp)
 20429c0:	e13c9217 	ldw	r4,-3512(fp)
 20429c4:	204bc180 	call	204bc18 <__addsf3>
 20429c8:	1007883a 	mov	r3,r2
 20429cc:	e0fc9215 	stw	r3,-3512(fp)

	char nome[14];
	time=0;
	avgtime=0;
	freq = alt_timestamp_freq();
	for (i=21; i<(nimages); i++){
 20429d0:	e0bc9317 	ldw	r2,-3508(fp)
 20429d4:	10800044 	addi	r2,r2,1
 20429d8:	e0bc9315 	stw	r2,-3508(fp)
 20429dc:	e0bffe0b 	ldhu	r2,-8(fp)
 20429e0:	e0fc9317 	ldw	r3,-3508(fp)
 20429e4:	18be9f16 	blt	r3,r2,2042464 <__alt_data_end+0xfffc2464>
		time = (time *1000 ) / freq; //get execution time (ms)
		avgtime += time;
	}

	//SHOW STATS
	alt_up_char_buffer_dev * char_buffer = NULL ;
 20429e8:	e03c9e15 	stw	zero,-3464(fp)
	char_buffer = alt_up_char_buffer_open_dev ("/dev/video_character_buffer_with_dma_0");
 20429ec:	010081b4 	movhi	r4,518
 20429f0:	210ad304 	addi	r4,r4,11084
 20429f4:	2060fa80 	call	2060fa8 <alt_up_char_buffer_open_dev>
 20429f8:	e0bc9e15 	stw	r2,-3464(fp)
	alt_up_char_buffer_init(char_buffer);
 20429fc:	e13c9e17 	ldw	r4,-3464(fp)
 2042a00:	2060f280 	call	2060f28 <alt_up_char_buffer_init>
	alt_up_char_buffer_clear(char_buffer);
 2042a04:	e13c9e17 	ldw	r4,-3464(fp)
 2042a08:	20611ac0 	call	20611ac <alt_up_char_buffer_clear>

	time    = avgtime;
 2042a0c:	e0bc9217 	ldw	r2,-3512(fp)
 2042a10:	e0bc9b15 	stw	r2,-3476(fp)
	avgtime = avgtime/nimages;
 2042a14:	e0bffe0b 	ldhu	r2,-8(fp)
 2042a18:	1009883a 	mov	r4,r2
 2042a1c:	204cebc0 	call	204cebc <__floatsisf>
 2042a20:	1007883a 	mov	r3,r2
 2042a24:	180b883a 	mov	r5,r3
 2042a28:	e13c9217 	ldw	r4,-3512(fp)
 2042a2c:	204c0e00 	call	204c0e0 <__divsf3>
 2042a30:	1007883a 	mov	r3,r2
 2042a34:	e0fc9215 	stw	r3,-3512(fp)
	char str[20];

	alt_up_char_buffer_string(char_buffer ,"Statistics: ",28,5);
 2042a38:	01c00144 	movi	r7,5
 2042a3c:	01800704 	movi	r6,28
 2042a40:	014081b4 	movhi	r5,518
 2042a44:	294ae804 	addi	r5,r5,11168
 2042a48:	e13c9e17 	ldw	r4,-3464(fp)
 2042a4c:	20610b00 	call	20610b0 <alt_up_char_buffer_string>
	alt_up_char_buffer_string(char_buffer ,"Execution time:",28,15);
 2042a50:	01c003c4 	movi	r7,15
 2042a54:	01800704 	movi	r6,28
 2042a58:	014081b4 	movhi	r5,518
 2042a5c:	294b0904 	addi	r5,r5,11300
 2042a60:	e13c9e17 	ldw	r4,-3464(fp)
 2042a64:	20610b00 	call	20610b0 <alt_up_char_buffer_string>
	sprintf(str, "%.3f s", time/1000);
 2042a68:	01511eb4 	movhi	r5,17530
 2042a6c:	e13c9b17 	ldw	r4,-3476(fp)
 2042a70:	204c0e00 	call	204c0e0 <__divsf3>
 2042a74:	1007883a 	mov	r3,r2
 2042a78:	1805883a 	mov	r2,r3
 2042a7c:	1009883a 	mov	r4,r2
 2042a80:	204f62c0 	call	204f62c <__extendsfdf2>
 2042a84:	1009883a 	mov	r4,r2
 2042a88:	180b883a 	mov	r5,r3
 2042a8c:	e0bce884 	addi	r2,fp,-3166
 2042a90:	200d883a 	mov	r6,r4
 2042a94:	280f883a 	mov	r7,r5
 2042a98:	014081b4 	movhi	r5,518
 2042a9c:	294b0d04 	addi	r5,r5,11316
 2042aa0:	1009883a 	mov	r4,r2
 2042aa4:	20507dc0 	call	20507dc <sprintf>
	alt_up_char_buffer_string(char_buffer ,str,28+30,15);
 2042aa8:	e0bce884 	addi	r2,fp,-3166
 2042aac:	01c003c4 	movi	r7,15
 2042ab0:	01800e84 	movi	r6,58
 2042ab4:	100b883a 	mov	r5,r2
 2042ab8:	e13c9e17 	ldw	r4,-3464(fp)
 2042abc:	20610b00 	call	20610b0 <alt_up_char_buffer_string>

	alt_up_char_buffer_string(char_buffer ,"Avg time per sample:",28,17);
 2042ac0:	01c00444 	movi	r7,17
 2042ac4:	01800704 	movi	r6,28
 2042ac8:	014081b4 	movhi	r5,518
 2042acc:	294aec04 	addi	r5,r5,11184
 2042ad0:	e13c9e17 	ldw	r4,-3464(fp)
 2042ad4:	20610b00 	call	20610b0 <alt_up_char_buffer_string>
	sprintf(str, "%.3f ms", avgtime);
 2042ad8:	e13c9217 	ldw	r4,-3512(fp)
 2042adc:	204f62c0 	call	204f62c <__extendsfdf2>
 2042ae0:	1009883a 	mov	r4,r2
 2042ae4:	180b883a 	mov	r5,r3
 2042ae8:	e0bce884 	addi	r2,fp,-3166
 2042aec:	200d883a 	mov	r6,r4
 2042af0:	280f883a 	mov	r7,r5
 2042af4:	014081b4 	movhi	r5,518
 2042af8:	294af204 	addi	r5,r5,11208
 2042afc:	1009883a 	mov	r4,r2
 2042b00:	20507dc0 	call	20507dc <sprintf>
	alt_up_char_buffer_string(char_buffer ,str,28+30,17);
 2042b04:	e0bce884 	addi	r2,fp,-3166
 2042b08:	01c00444 	movi	r7,17
 2042b0c:	01800e84 	movi	r6,58
 2042b10:	100b883a 	mov	r5,r2
 2042b14:	e13c9e17 	ldw	r4,-3464(fp)
 2042b18:	20610b00 	call	20610b0 <alt_up_char_buffer_string>

	alt_up_char_buffer_string(char_buffer ,"label",10,22);
 2042b1c:	01c00584 	movi	r7,22
 2042b20:	01800284 	movi	r6,10
 2042b24:	014081b4 	movhi	r5,518
 2042b28:	294af404 	addi	r5,r5,11216
 2042b2c:	e13c9e17 	ldw	r4,-3464(fp)
 2042b30:	20610b00 	call	20610b0 <alt_up_char_buffer_string>
	alt_up_char_buffer_string(char_buffer ,"Precision",25,22);
 2042b34:	01c00584 	movi	r7,22
 2042b38:	01800644 	movi	r6,25
 2042b3c:	014081b4 	movhi	r5,518
 2042b40:	294af604 	addi	r5,r5,11224
 2042b44:	e13c9e17 	ldw	r4,-3464(fp)
 2042b48:	20610b00 	call	20610b0 <alt_up_char_buffer_string>
	alt_up_char_buffer_string(char_buffer ,"Recall",40,22);
 2042b4c:	01c00584 	movi	r7,22
 2042b50:	01800a04 	movi	r6,40
 2042b54:	014081b4 	movhi	r5,518
 2042b58:	294af904 	addi	r5,r5,11236
 2042b5c:	e13c9e17 	ldw	r4,-3464(fp)
 2042b60:	20610b00 	call	20610b0 <alt_up_char_buffer_string>
	alt_up_char_buffer_string(char_buffer ,"F1 Score",55,22);
 2042b64:	01c00584 	movi	r7,22
 2042b68:	01800dc4 	movi	r6,55
 2042b6c:	014081b4 	movhi	r5,518
 2042b70:	294afb04 	addi	r5,r5,11244
 2042b74:	e13c9e17 	ldw	r4,-3464(fp)
 2042b78:	20610b00 	call	20610b0 <alt_up_char_buffer_string>

	for (i = 0; i<10; i++){
 2042b7c:	e03c9315 	stw	zero,-3508(fp)
 2042b80:	0000e606 	br	2042f1c <fast_version+0xbe4>
		sprintf(str, "|%d ->", i);
 2042b84:	e0bce884 	addi	r2,fp,-3166
 2042b88:	e1bc9317 	ldw	r6,-3508(fp)
 2042b8c:	014081b4 	movhi	r5,518
 2042b90:	294afe04 	addi	r5,r5,11256
 2042b94:	1009883a 	mov	r4,r2
 2042b98:	20507dc0 	call	20507dc <sprintf>
		alt_up_char_buffer_string(char_buffer ,str,10,24+i);
 2042b9c:	e0bc9317 	ldw	r2,-3508(fp)
 2042ba0:	10800604 	addi	r2,r2,24
 2042ba4:	1007883a 	mov	r3,r2
 2042ba8:	e0bce884 	addi	r2,fp,-3166
 2042bac:	180f883a 	mov	r7,r3
 2042bb0:	01800284 	movi	r6,10
 2042bb4:	100b883a 	mov	r5,r2
 2042bb8:	e13c9e17 	ldw	r4,-3464(fp)
 2042bbc:	20610b00 	call	20610b0 <alt_up_char_buffer_string>

		precision[i]=TP[i]/(TP[i]+FP[i]);
 2042bc0:	e0bc9317 	ldw	r2,-3508(fp)
 2042bc4:	1085883a 	add	r2,r2,r2
 2042bc8:	1085883a 	add	r2,r2,r2
 2042bcc:	e0fc9104 	addi	r3,fp,-3516
 2042bd0:	1885883a 	add	r2,r3,r2
 2042bd4:	10802204 	addi	r2,r2,136
 2042bd8:	14000017 	ldw	r16,0(r2)
 2042bdc:	e0bc9317 	ldw	r2,-3508(fp)
 2042be0:	1085883a 	add	r2,r2,r2
 2042be4:	1085883a 	add	r2,r2,r2
 2042be8:	e13c9104 	addi	r4,fp,-3516
 2042bec:	2085883a 	add	r2,r4,r2
 2042bf0:	10802204 	addi	r2,r2,136
 2042bf4:	10c00017 	ldw	r3,0(r2)
 2042bf8:	e0bc9317 	ldw	r2,-3508(fp)
 2042bfc:	1085883a 	add	r2,r2,r2
 2042c00:	1085883a 	add	r2,r2,r2
 2042c04:	e13c9104 	addi	r4,fp,-3516
 2042c08:	2085883a 	add	r2,r4,r2
 2042c0c:	10802c04 	addi	r2,r2,176
 2042c10:	11000017 	ldw	r4,0(r2)
 2042c14:	200b883a 	mov	r5,r4
 2042c18:	1809883a 	mov	r4,r3
 2042c1c:	204bc180 	call	204bc18 <__addsf3>
 2042c20:	1007883a 	mov	r3,r2
 2042c24:	1805883a 	mov	r2,r3
 2042c28:	100b883a 	mov	r5,r2
 2042c2c:	8009883a 	mov	r4,r16
 2042c30:	204c0e00 	call	204c0e0 <__divsf3>
 2042c34:	1009883a 	mov	r4,r2
 2042c38:	2007883a 	mov	r3,r4
 2042c3c:	e0bc9317 	ldw	r2,-3508(fp)
 2042c40:	1085883a 	add	r2,r2,r2
 2042c44:	1085883a 	add	r2,r2,r2
 2042c48:	e13c9104 	addi	r4,fp,-3516
 2042c4c:	2085883a 	add	r2,r4,r2
 2042c50:	10803604 	addi	r2,r2,216
 2042c54:	10c00015 	stw	r3,0(r2)
		sprintf(str, "%.2f", precision[i]);
 2042c58:	e0bc9317 	ldw	r2,-3508(fp)
 2042c5c:	1085883a 	add	r2,r2,r2
 2042c60:	1085883a 	add	r2,r2,r2
 2042c64:	e0fc9104 	addi	r3,fp,-3516
 2042c68:	1885883a 	add	r2,r3,r2
 2042c6c:	10803604 	addi	r2,r2,216
 2042c70:	10c00017 	ldw	r3,0(r2)
 2042c74:	1809883a 	mov	r4,r3
 2042c78:	204f62c0 	call	204f62c <__extendsfdf2>
 2042c7c:	1009883a 	mov	r4,r2
 2042c80:	180b883a 	mov	r5,r3
 2042c84:	e0bce884 	addi	r2,fp,-3166
 2042c88:	200d883a 	mov	r6,r4
 2042c8c:	280f883a 	mov	r7,r5
 2042c90:	014081b4 	movhi	r5,518
 2042c94:	294b0004 	addi	r5,r5,11264
 2042c98:	1009883a 	mov	r4,r2
 2042c9c:	20507dc0 	call	20507dc <sprintf>
		alt_up_char_buffer_string(char_buffer ,str,25,24+i);
 2042ca0:	e0bc9317 	ldw	r2,-3508(fp)
 2042ca4:	10800604 	addi	r2,r2,24
 2042ca8:	1007883a 	mov	r3,r2
 2042cac:	e0bce884 	addi	r2,fp,-3166
 2042cb0:	180f883a 	mov	r7,r3
 2042cb4:	01800644 	movi	r6,25
 2042cb8:	100b883a 	mov	r5,r2
 2042cbc:	e13c9e17 	ldw	r4,-3464(fp)
 2042cc0:	20610b00 	call	20610b0 <alt_up_char_buffer_string>

		recall[i]=TP[i]/(TP[i]+FN[i]);
 2042cc4:	e0bc9317 	ldw	r2,-3508(fp)
 2042cc8:	1085883a 	add	r2,r2,r2
 2042ccc:	1085883a 	add	r2,r2,r2
 2042cd0:	e13c9104 	addi	r4,fp,-3516
 2042cd4:	2085883a 	add	r2,r4,r2
 2042cd8:	10802204 	addi	r2,r2,136
 2042cdc:	14000017 	ldw	r16,0(r2)
 2042ce0:	e0bc9317 	ldw	r2,-3508(fp)
 2042ce4:	1085883a 	add	r2,r2,r2
 2042ce8:	1085883a 	add	r2,r2,r2
 2042cec:	e0fc9104 	addi	r3,fp,-3516
 2042cf0:	1885883a 	add	r2,r3,r2
 2042cf4:	10802204 	addi	r2,r2,136
 2042cf8:	10c00017 	ldw	r3,0(r2)
 2042cfc:	e0bc9317 	ldw	r2,-3508(fp)
 2042d00:	1085883a 	add	r2,r2,r2
 2042d04:	1085883a 	add	r2,r2,r2
 2042d08:	e13c9104 	addi	r4,fp,-3516
 2042d0c:	2085883a 	add	r2,r4,r2
 2042d10:	10801804 	addi	r2,r2,96
 2042d14:	11000017 	ldw	r4,0(r2)
 2042d18:	200b883a 	mov	r5,r4
 2042d1c:	1809883a 	mov	r4,r3
 2042d20:	204bc180 	call	204bc18 <__addsf3>
 2042d24:	1007883a 	mov	r3,r2
 2042d28:	1805883a 	mov	r2,r3
 2042d2c:	100b883a 	mov	r5,r2
 2042d30:	8009883a 	mov	r4,r16
 2042d34:	204c0e00 	call	204c0e0 <__divsf3>
 2042d38:	1009883a 	mov	r4,r2
 2042d3c:	2007883a 	mov	r3,r4
 2042d40:	e0bc9317 	ldw	r2,-3508(fp)
 2042d44:	1085883a 	add	r2,r2,r2
 2042d48:	1085883a 	add	r2,r2,r2
 2042d4c:	e13c9104 	addi	r4,fp,-3516
 2042d50:	2085883a 	add	r2,r4,r2
 2042d54:	10804004 	addi	r2,r2,256
 2042d58:	10c00015 	stw	r3,0(r2)
		sprintf(str, "%.2f", recall[i]);
 2042d5c:	e0bc9317 	ldw	r2,-3508(fp)
 2042d60:	1085883a 	add	r2,r2,r2
 2042d64:	1085883a 	add	r2,r2,r2
 2042d68:	e0fc9104 	addi	r3,fp,-3516
 2042d6c:	1885883a 	add	r2,r3,r2
 2042d70:	10804004 	addi	r2,r2,256
 2042d74:	10c00017 	ldw	r3,0(r2)
 2042d78:	1809883a 	mov	r4,r3
 2042d7c:	204f62c0 	call	204f62c <__extendsfdf2>
 2042d80:	1009883a 	mov	r4,r2
 2042d84:	180b883a 	mov	r5,r3
 2042d88:	e0bce884 	addi	r2,fp,-3166
 2042d8c:	200d883a 	mov	r6,r4
 2042d90:	280f883a 	mov	r7,r5
 2042d94:	014081b4 	movhi	r5,518
 2042d98:	294b0004 	addi	r5,r5,11264
 2042d9c:	1009883a 	mov	r4,r2
 2042da0:	20507dc0 	call	20507dc <sprintf>
		alt_up_char_buffer_string(char_buffer ,str,40,24+i);
 2042da4:	e0bc9317 	ldw	r2,-3508(fp)
 2042da8:	10800604 	addi	r2,r2,24
 2042dac:	1007883a 	mov	r3,r2
 2042db0:	e0bce884 	addi	r2,fp,-3166
 2042db4:	180f883a 	mov	r7,r3
 2042db8:	01800a04 	movi	r6,40
 2042dbc:	100b883a 	mov	r5,r2
 2042dc0:	e13c9e17 	ldw	r4,-3464(fp)
 2042dc4:	20610b00 	call	20610b0 <alt_up_char_buffer_string>

		f1scores[i]=2*((precision[i]*recall[i])/(precision[i]+recall[i]));
 2042dc8:	e0bc9317 	ldw	r2,-3508(fp)
 2042dcc:	1085883a 	add	r2,r2,r2
 2042dd0:	1085883a 	add	r2,r2,r2
 2042dd4:	e13c9104 	addi	r4,fp,-3516
 2042dd8:	2085883a 	add	r2,r4,r2
 2042ddc:	10803604 	addi	r2,r2,216
 2042de0:	10c00017 	ldw	r3,0(r2)
 2042de4:	e0bc9317 	ldw	r2,-3508(fp)
 2042de8:	1085883a 	add	r2,r2,r2
 2042dec:	1085883a 	add	r2,r2,r2
 2042df0:	e13c9104 	addi	r4,fp,-3516
 2042df4:	2085883a 	add	r2,r4,r2
 2042df8:	10804004 	addi	r2,r2,256
 2042dfc:	11000017 	ldw	r4,0(r2)
 2042e00:	200b883a 	mov	r5,r4
 2042e04:	1809883a 	mov	r4,r3
 2042e08:	204c5dc0 	call	204c5dc <__mulsf3>
 2042e0c:	1007883a 	mov	r3,r2
 2042e10:	1821883a 	mov	r16,r3
 2042e14:	e0bc9317 	ldw	r2,-3508(fp)
 2042e18:	1085883a 	add	r2,r2,r2
 2042e1c:	1085883a 	add	r2,r2,r2
 2042e20:	e0fc9104 	addi	r3,fp,-3516
 2042e24:	1885883a 	add	r2,r3,r2
 2042e28:	10803604 	addi	r2,r2,216
 2042e2c:	10c00017 	ldw	r3,0(r2)
 2042e30:	e0bc9317 	ldw	r2,-3508(fp)
 2042e34:	1085883a 	add	r2,r2,r2
 2042e38:	1085883a 	add	r2,r2,r2
 2042e3c:	e13c9104 	addi	r4,fp,-3516
 2042e40:	2085883a 	add	r2,r4,r2
 2042e44:	10804004 	addi	r2,r2,256
 2042e48:	11000017 	ldw	r4,0(r2)
 2042e4c:	200b883a 	mov	r5,r4
 2042e50:	1809883a 	mov	r4,r3
 2042e54:	204bc180 	call	204bc18 <__addsf3>
 2042e58:	1007883a 	mov	r3,r2
 2042e5c:	1805883a 	mov	r2,r3
 2042e60:	100b883a 	mov	r5,r2
 2042e64:	8009883a 	mov	r4,r16
 2042e68:	204c0e00 	call	204c0e0 <__divsf3>
 2042e6c:	1007883a 	mov	r3,r2
 2042e70:	1805883a 	mov	r2,r3
 2042e74:	100b883a 	mov	r5,r2
 2042e78:	1009883a 	mov	r4,r2
 2042e7c:	204bc180 	call	204bc18 <__addsf3>
 2042e80:	1009883a 	mov	r4,r2
 2042e84:	2007883a 	mov	r3,r4
 2042e88:	e0bc9317 	ldw	r2,-3508(fp)
 2042e8c:	1085883a 	add	r2,r2,r2
 2042e90:	1085883a 	add	r2,r2,r2
 2042e94:	e13c9104 	addi	r4,fp,-3516
 2042e98:	2085883a 	add	r2,r4,r2
 2042e9c:	10804a04 	addi	r2,r2,296
 2042ea0:	10c00015 	stw	r3,0(r2)
		sprintf(str, "%.2f", f1scores[i]);
 2042ea4:	e0bc9317 	ldw	r2,-3508(fp)
 2042ea8:	1085883a 	add	r2,r2,r2
 2042eac:	1085883a 	add	r2,r2,r2
 2042eb0:	e0fc9104 	addi	r3,fp,-3516
 2042eb4:	1885883a 	add	r2,r3,r2
 2042eb8:	10804a04 	addi	r2,r2,296
 2042ebc:	10c00017 	ldw	r3,0(r2)
 2042ec0:	1809883a 	mov	r4,r3
 2042ec4:	204f62c0 	call	204f62c <__extendsfdf2>
 2042ec8:	1009883a 	mov	r4,r2
 2042ecc:	180b883a 	mov	r5,r3
 2042ed0:	e0bce884 	addi	r2,fp,-3166
 2042ed4:	200d883a 	mov	r6,r4
 2042ed8:	280f883a 	mov	r7,r5
 2042edc:	014081b4 	movhi	r5,518
 2042ee0:	294b0004 	addi	r5,r5,11264
 2042ee4:	1009883a 	mov	r4,r2
 2042ee8:	20507dc0 	call	20507dc <sprintf>
		alt_up_char_buffer_string(char_buffer ,str,55,24+i);
 2042eec:	e0bc9317 	ldw	r2,-3508(fp)
 2042ef0:	10800604 	addi	r2,r2,24
 2042ef4:	1007883a 	mov	r3,r2
 2042ef8:	e0bce884 	addi	r2,fp,-3166
 2042efc:	180f883a 	mov	r7,r3
 2042f00:	01800dc4 	movi	r6,55
 2042f04:	100b883a 	mov	r5,r2
 2042f08:	e13c9e17 	ldw	r4,-3464(fp)
 2042f0c:	20610b00 	call	20610b0 <alt_up_char_buffer_string>
	alt_up_char_buffer_string(char_buffer ,"label",10,22);
	alt_up_char_buffer_string(char_buffer ,"Precision",25,22);
	alt_up_char_buffer_string(char_buffer ,"Recall",40,22);
	alt_up_char_buffer_string(char_buffer ,"F1 Score",55,22);

	for (i = 0; i<10; i++){
 2042f10:	e0bc9317 	ldw	r2,-3508(fp)
 2042f14:	10800044 	addi	r2,r2,1
 2042f18:	e0bc9315 	stw	r2,-3508(fp)
 2042f1c:	e0bc9317 	ldw	r2,-3508(fp)
 2042f20:	10800290 	cmplti	r2,r2,10
 2042f24:	103f171e 	bne	r2,zero,2042b84 <__alt_data_end+0xfffc2b84>
		f1scores[i]=2*((precision[i]*recall[i])/(precision[i]+recall[i]));
		sprintf(str, "%.2f", f1scores[i]);
		alt_up_char_buffer_string(char_buffer ,str,55,24+i);
	}

	alt_up_char_buffer_string(char_buffer ,"press key[0] to restart ",28,48);
 2042f28:	01c00c04 	movi	r7,48
 2042f2c:	01800704 	movi	r6,28
 2042f30:	014081b4 	movhi	r5,518
 2042f34:	294b0204 	addi	r5,r5,11272
 2042f38:	e13c9e17 	ldw	r4,-3464(fp)
 2042f3c:	20610b00 	call	20610b0 <alt_up_char_buffer_string>

	free(pixels);
 2042f40:	e13c9a17 	ldw	r4,-3480(fp)
 2042f44:	204f9840 	call	204f984 <free>
	return 1;
 2042f48:	00800044 	movi	r2,1
}
 2042f4c:	e6ffff04 	addi	sp,fp,-4
 2042f50:	dfc00217 	ldw	ra,8(sp)
 2042f54:	df000117 	ldw	fp,4(sp)
 2042f58:	dc000017 	ldw	r16,0(sp)
 2042f5c:	dec00704 	addi	sp,sp,28
 2042f60:	f800283a 	ret

02042f64 <fast_version3>:
int fast_version3(const neural_network_t network,FAT_HANDLE hFat, short unsigned int nimages ){
 2042f64:	deff9704 	addi	sp,sp,-420
 2042f68:	dfc06415 	stw	ra,400(sp)
 2042f6c:	df006315 	stw	fp,396(sp)
 2042f70:	dc006215 	stw	r16,392(sp)
 2042f74:	df006304 	addi	fp,sp,396
 2042f78:	e1000215 	stw	r4,8(fp)
 2042f7c:	e1400315 	stw	r5,12(fp)
 2042f80:	e1800415 	stw	r6,16(fp)
 2042f84:	e1c00515 	stw	r7,20(fp)
 2042f88:	e09ead17 	ldw	r2,31412(fp)
 2042f8c:	e0bffe0d 	sth	r2,-8(fp)
	int *pixels = NULL;
 2042f90:	e03fa615 	stw	zero,-360(fp)
	pixels = (int *) malloc(sizeof(int)*784);
 2042f94:	01031004 	movi	r4,3136
 2042f98:	204f9700 	call	204f970 <malloc>
 2042f9c:	e0bfa615 	stw	r2,-360(fp)
	float FP[10];

	float precision[10];
	float recall[10];
	float f1scores[10];
	for (i = 0; i<10;i++){
 2042fa0:	e03f9f15 	stw	zero,-388(fp)
 2042fa4:	00002d06 	br	204305c <fast_version3+0xf8>
		precision[i]=0;
 2042fa8:	e0bf9f17 	ldw	r2,-388(fp)
 2042fac:	1085883a 	add	r2,r2,r2
 2042fb0:	1085883a 	add	r2,r2,r2
 2042fb4:	e0ff9d04 	addi	r3,fp,-396
 2042fb8:	1885883a 	add	r2,r3,r2
 2042fbc:	10803704 	addi	r2,r2,220
 2042fc0:	10000015 	stw	zero,0(r2)
		recall[i]=0;
 2042fc4:	e0bf9f17 	ldw	r2,-388(fp)
 2042fc8:	1085883a 	add	r2,r2,r2
 2042fcc:	1085883a 	add	r2,r2,r2
 2042fd0:	e13f9d04 	addi	r4,fp,-396
 2042fd4:	2085883a 	add	r2,r4,r2
 2042fd8:	10804104 	addi	r2,r2,260
 2042fdc:	10000015 	stw	zero,0(r2)
		f1scores[i]=0;
 2042fe0:	e0bf9f17 	ldw	r2,-388(fp)
 2042fe4:	1085883a 	add	r2,r2,r2
 2042fe8:	1085883a 	add	r2,r2,r2
 2042fec:	e0ff9d04 	addi	r3,fp,-396
 2042ff0:	1885883a 	add	r2,r3,r2
 2042ff4:	10804b04 	addi	r2,r2,300
 2042ff8:	10000015 	stw	zero,0(r2)
		FN[i]=0;
 2042ffc:	e0bf9f17 	ldw	r2,-388(fp)
 2043000:	1085883a 	add	r2,r2,r2
 2043004:	1085883a 	add	r2,r2,r2
 2043008:	e13f9d04 	addi	r4,fp,-396
 204300c:	2085883a 	add	r2,r4,r2
 2043010:	10801904 	addi	r2,r2,100
 2043014:	10000015 	stw	zero,0(r2)
		TP[i]=0;
 2043018:	e0bf9f17 	ldw	r2,-388(fp)
 204301c:	1085883a 	add	r2,r2,r2
 2043020:	1085883a 	add	r2,r2,r2
 2043024:	e0ff9d04 	addi	r3,fp,-396
 2043028:	1885883a 	add	r2,r3,r2
 204302c:	10802304 	addi	r2,r2,140
 2043030:	10000015 	stw	zero,0(r2)
		FP[i]=0;
 2043034:	e0bf9f17 	ldw	r2,-388(fp)
 2043038:	1085883a 	add	r2,r2,r2
 204303c:	1085883a 	add	r2,r2,r2
 2043040:	e13f9d04 	addi	r4,fp,-396
 2043044:	2085883a 	add	r2,r4,r2
 2043048:	10802d04 	addi	r2,r2,180
 204304c:	10000015 	stw	zero,0(r2)
	float FP[10];

	float precision[10];
	float recall[10];
	float f1scores[10];
	for (i = 0; i<10;i++){
 2043050:	e0bf9f17 	ldw	r2,-388(fp)
 2043054:	10800044 	addi	r2,r2,1
 2043058:	e0bf9f15 	stw	r2,-388(fp)
 204305c:	e0bf9f17 	ldw	r2,-388(fp)
 2043060:	10800290 	cmplti	r2,r2,10
 2043064:	103fd01e 	bne	r2,zero,2042fa8 <__alt_data_end+0xfffc2fa8>
		TP[i]=0;
		FP[i]=0;
	}

	char nome[14];
	time=0;
 2043068:	e03fa715 	stw	zero,-356(fp)
	avgtime=0;
 204306c:	e03f9e15 	stw	zero,-392(fp)
	freq = alt_timestamp_freq();
 2043070:	20403880 	call	2040388 <alt_timestamp_freq>
 2043074:	1009883a 	mov	r4,r2
 2043078:	204cfe00 	call	204cfe0 <__floatunsisf>
 204307c:	1007883a 	mov	r3,r2
 2043080:	e0ffa815 	stw	r3,-352(fp)

	for (i=21; i<(nimages); i++){
 2043084:	00800544 	movi	r2,21
 2043088:	e0bf9f15 	stw	r2,-388(fp)
 204308c:	0001a806 	br	2043730 <fast_version3+0x7cc>

		snprintf(nome, 14, "%d.txt", i);//
 2043090:	e0bff204 	addi	r2,fp,-56
 2043094:	e1ff9f17 	ldw	r7,-388(fp)
 2043098:	018081b4 	movhi	r6,518
 204309c:	318ae604 	addi	r6,r6,11160
 20430a0:	01400384 	movi	r5,14
 20430a4:	1009883a 	mov	r4,r2
 20430a8:	20506a00 	call	20506a0 <snprintf>
		label = readimage(hFat,pixels,nome);
 20430ac:	e0bff204 	addi	r2,fp,-56
 20430b0:	100d883a 	mov	r6,r2
 20430b4:	e17fa617 	ldw	r5,-360(fp)
 20430b8:	e11eac17 	ldw	r4,31408(fp)
 20430bc:	204430c0 	call	204430c <readimage>
 20430c0:	e0bfa915 	stw	r2,-348(fp)
	    int ki, kj;
	    float ksum, kmax;

	    unsigned int ui;

	    alt_timestamp_start();
 20430c4:	20402900 	call	2040290 <alt_timestamp_start>
	    //pixel preprocessing and initializing
	    IOWR_ALTERA_AVALON_PIO_DATA(SYNC_DATA_BASE,1<<7);
 20430c8:	00c02004 	movi	r3,128
 20430cc:	00808234 	movhi	r2,520
 20430d0:	108c1004 	addi	r2,r2,12352
 20430d4:	10c00035 	stwio	r3,0(r2)
	    for (kj = 0; kj < MNIST_IMAGE_SIZE; kj++){
 20430d8:	e03fa315 	stw	zero,-372(fp)
 20430dc:	00002806 	br	2043180 <fast_version3+0x21c>
	    	float f = pixels[kj] / 255.0;
 20430e0:	e0bfa317 	ldw	r2,-372(fp)
 20430e4:	1085883a 	add	r2,r2,r2
 20430e8:	1085883a 	add	r2,r2,r2
 20430ec:	1007883a 	mov	r3,r2
 20430f0:	e0bfa617 	ldw	r2,-360(fp)
 20430f4:	10c5883a 	add	r2,r2,r3
 20430f8:	10800017 	ldw	r2,0(r2)
 20430fc:	1009883a 	mov	r4,r2
 2043100:	204f5500 	call	204f550 <__floatsidf>
 2043104:	1011883a 	mov	r8,r2
 2043108:	1813883a 	mov	r9,r3
 204310c:	000d883a 	mov	r6,zero
 2043110:	01d01c34 	movhi	r7,16496
 2043114:	39f80004 	addi	r7,r7,-8192
 2043118:	4009883a 	mov	r4,r8
 204311c:	480b883a 	mov	r5,r9
 2043120:	204d97c0 	call	204d97c <__divdf3>
 2043124:	1009883a 	mov	r4,r2
 2043128:	180b883a 	mov	r5,r3
 204312c:	2005883a 	mov	r2,r4
 2043130:	2807883a 	mov	r3,r5
 2043134:	1009883a 	mov	r4,r2
 2043138:	180b883a 	mov	r5,r3
 204313c:	204f73c0 	call	204f73c <__truncdfsf2>
 2043140:	1007883a 	mov	r3,r2
 2043144:	e0fffc15 	stw	r3,-16(fp)
			memcpy(&ui, &f, sizeof (ui));
 2043148:	e0bffc17 	ldw	r2,-16(fp)
 204314c:	e0bffb15 	stw	r2,-20(fp)
			IOWR_ALTERA_AVALON_PIO_DATA(PIXEL_INDEX_BASE,kj);
 2043150:	00808234 	movhi	r2,520
 2043154:	108c0c04 	addi	r2,r2,12336
 2043158:	e0ffa317 	ldw	r3,-372(fp)
 204315c:	10c00035 	stwio	r3,0(r2)
			IOWR_ALTERA_AVALON_PIO_DATA(FLOATDATA_OUTPUT_BASE,ui);
 2043160:	e0bffb17 	ldw	r2,-20(fp)
 2043164:	1007883a 	mov	r3,r2
 2043168:	00808234 	movhi	r2,520
 204316c:	108c1404 	addi	r2,r2,12368
 2043170:	10c00035 	stwio	r3,0(r2)
	    unsigned int ui;

	    alt_timestamp_start();
	    //pixel preprocessing and initializing
	    IOWR_ALTERA_AVALON_PIO_DATA(SYNC_DATA_BASE,1<<7);
	    for (kj = 0; kj < MNIST_IMAGE_SIZE; kj++){
 2043174:	e0bfa317 	ldw	r2,-372(fp)
 2043178:	10800044 	addi	r2,r2,1
 204317c:	e0bfa315 	stw	r2,-372(fp)
 2043180:	e0bfa317 	ldw	r2,-372(fp)
 2043184:	1080c410 	cmplti	r2,r2,784
 2043188:	103fd51e 	bne	r2,zero,20430e0 <__alt_data_end+0xfffc30e0>
			IOWR_ALTERA_AVALON_PIO_DATA(PIXEL_INDEX_BASE,kj);
			IOWR_ALTERA_AVALON_PIO_DATA(FLOATDATA_OUTPUT_BASE,ui);
	    }

	    //activations initializing
	    IOWR_ALTERA_AVALON_PIO_DATA(SYNC_DATA_BASE, (1<<4)+(1<<5));
 204318c:	00c00c04 	movi	r3,48
 2043190:	00808234 	movhi	r2,520
 2043194:	108c1004 	addi	r2,r2,12352
 2043198:	10c00035 	stwio	r3,0(r2)
	    for (ki = 0; ki < MNIST_LABELS; ki++) {
 204319c:	e03fa215 	stw	zero,-376(fp)
 20431a0:	00001506 	br	20431f8 <fast_version3+0x294>
	    	float f = network.b[ki];
 20431a4:	e0bfa217 	ldw	r2,-376(fp)
 20431a8:	1085883a 	add	r2,r2,r2
 20431ac:	1085883a 	add	r2,r2,r2
 20431b0:	e1000204 	addi	r4,fp,8
 20431b4:	2087883a 	add	r3,r4,r2
 20431b8:	18800017 	ldw	r2,0(r3)
 20431bc:	e0bffd15 	stw	r2,-12(fp)
	    	memcpy(&ui, &f, sizeof (ui));
 20431c0:	e0bffd17 	ldw	r2,-12(fp)
 20431c4:	e0bffb15 	stw	r2,-20(fp)
	    	IOWR_ALTERA_AVALON_PIO_DATA(ACTIVATIONS_INDEX_BASE, ki);
 20431c8:	00808234 	movhi	r2,520
 20431cc:	108c0004 	addi	r2,r2,12288
 20431d0:	e0ffa217 	ldw	r3,-376(fp)
 20431d4:	10c00035 	stwio	r3,0(r2)
	    	IOWR_ALTERA_AVALON_PIO_DATA(FLOATDATA_OUTPUT_BASE, ui);
 20431d8:	e0bffb17 	ldw	r2,-20(fp)
 20431dc:	1007883a 	mov	r3,r2
 20431e0:	00808234 	movhi	r2,520
 20431e4:	108c1404 	addi	r2,r2,12368
 20431e8:	10c00035 	stwio	r3,0(r2)
			IOWR_ALTERA_AVALON_PIO_DATA(FLOATDATA_OUTPUT_BASE,ui);
	    }

	    //activations initializing
	    IOWR_ALTERA_AVALON_PIO_DATA(SYNC_DATA_BASE, (1<<4)+(1<<5));
	    for (ki = 0; ki < MNIST_LABELS; ki++) {
 20431ec:	e0bfa217 	ldw	r2,-376(fp)
 20431f0:	10800044 	addi	r2,r2,1
 20431f4:	e0bfa215 	stw	r2,-376(fp)
 20431f8:	e0bfa217 	ldw	r2,-376(fp)
 20431fc:	10800290 	cmplti	r2,r2,10
 2043200:	103fe81e 	bne	r2,zero,20431a4 <__alt_data_end+0xfffc31a4>
	    	memcpy(&ui, &f, sizeof (ui));
	    	IOWR_ALTERA_AVALON_PIO_DATA(ACTIVATIONS_INDEX_BASE, ki);
	    	IOWR_ALTERA_AVALON_PIO_DATA(FLOATDATA_OUTPUT_BASE, ui);
	    }

		for (ki = 0; ki < 10; ki++) {
 2043204:	e03fa215 	stw	zero,-376(fp)
 2043208:	00004206 	br	2043314 <fast_version3+0x3b0>

			IOWR_ALTERA_AVALON_PIO_DATA(ACTIVATIONS_INDEX_BASE, ki);
 204320c:	00808234 	movhi	r2,520
 2043210:	108c0004 	addi	r2,r2,12288
 2043214:	e0ffa217 	ldw	r3,-376(fp)
 2043218:	10c00035 	stwio	r3,0(r2)
			IOWR_ALTERA_AVALON_PIO_DATA(SYNC_DATA_BASE, (1<<5));
 204321c:	00c00804 	movi	r3,32
 2043220:	00808234 	movhi	r2,520
 2043224:	108c1004 	addi	r2,r2,12352
 2043228:	10c00035 	stwio	r3,0(r2)
			IOWR_ALTERA_AVALON_PIO_DATA(SYNC_DATA_BASE,0);
 204322c:	0007883a 	mov	r3,zero
 2043230:	00808234 	movhi	r2,520
 2043234:	108c1004 	addi	r2,r2,12352
 2043238:	10c00035 	stwio	r3,0(r2)
	    	IOWR_ALTERA_AVALON_PIO_DATA(SYNC_DATA_BASE,1);
 204323c:	00c00044 	movi	r3,1
 2043240:	00808234 	movhi	r2,520
 2043244:	108c1004 	addi	r2,r2,12352
 2043248:	10c00035 	stwio	r3,0(r2)

			for (kj = 0; kj < 784; kj++) {
 204324c:	e03fa315 	stw	zero,-372(fp)
 2043250:	00002a06 	br	20432fc <fast_version3+0x398>

		    	IOWR_ALTERA_AVALON_PIO_DATA(WEIGHT_INDEX_BASE,ki*784+kj); //double index
 2043254:	e0bfa217 	ldw	r2,-376(fp)
 2043258:	10c0c424 	muli	r3,r2,784
 204325c:	e0bfa317 	ldw	r2,-372(fp)
 2043260:	1887883a 	add	r3,r3,r2
 2043264:	00808234 	movhi	r2,520
 2043268:	108c0804 	addi	r2,r2,12320
 204326c:	10c00035 	stwio	r3,0(r2)
		    	IOWR_ALTERA_AVALON_PIO_DATA(SYNC_DATA_BASE, (1<<8));
 2043270:	00c04004 	movi	r3,256
 2043274:	00808234 	movhi	r2,520
 2043278:	108c1004 	addi	r2,r2,12352
 204327c:	10c00035 	stwio	r3,0(r2)

		    	IOWR_ALTERA_AVALON_PIO_DATA(PIXEL_INDEX_BASE,kj); //pixel idx
 2043280:	00808234 	movhi	r2,520
 2043284:	108c0c04 	addi	r2,r2,12336
 2043288:	e0ffa317 	ldw	r3,-372(fp)
 204328c:	10c00035 	stwio	r3,0(r2)
		    	IOWR_ALTERA_AVALON_PIO_DATA(SYNC_DATA_BASE, (1<<8)+(1<<9));
 2043290:	00c0c004 	movi	r3,768
 2043294:	00808234 	movhi	r2,520
 2043298:	108c1004 	addi	r2,r2,12352
 204329c:	10c00035 	stwio	r3,0(r2)

		    	IOWR_ALTERA_AVALON_PIO_DATA(SYNC_DATA_BASE,0);
 20432a0:	0007883a 	mov	r3,zero
 20432a4:	00808234 	movhi	r2,520
 20432a8:	108c1004 	addi	r2,r2,12352
 20432ac:	10c00035 	stwio	r3,0(r2)
				IOWR_ALTERA_AVALON_PIO_DATA(SYNC_DATA_BASE,2);
 20432b0:	00c00084 	movi	r3,2
 20432b4:	00808234 	movhi	r2,520
 20432b8:	108c1004 	addi	r2,r2,12352
 20432bc:	10c00035 	stwio	r3,0(r2)
		    	IOWR_ALTERA_AVALON_PIO_DATA(SYNC_DATA_BASE, (1<<4)+(1<<8)+(1<<9));
 20432c0:	00c0c404 	movi	r3,784
 20432c4:	00808234 	movhi	r2,520
 20432c8:	108c1004 	addi	r2,r2,12352
 20432cc:	10c00035 	stwio	r3,0(r2)
				IOWR_ALTERA_AVALON_PIO_DATA(SYNC_DATA_BASE,0);
 20432d0:	0007883a 	mov	r3,zero
 20432d4:	00808234 	movhi	r2,520
 20432d8:	108c1004 	addi	r2,r2,12352
 20432dc:	10c00035 	stwio	r3,0(r2)
		    	IOWR_ALTERA_AVALON_PIO_DATA(SYNC_DATA_BASE,1);
 20432e0:	00c00044 	movi	r3,1
 20432e4:	00808234 	movhi	r2,520
 20432e8:	108c1004 	addi	r2,r2,12352
 20432ec:	10c00035 	stwio	r3,0(r2)
			IOWR_ALTERA_AVALON_PIO_DATA(ACTIVATIONS_INDEX_BASE, ki);
			IOWR_ALTERA_AVALON_PIO_DATA(SYNC_DATA_BASE, (1<<5));
			IOWR_ALTERA_AVALON_PIO_DATA(SYNC_DATA_BASE,0);
	    	IOWR_ALTERA_AVALON_PIO_DATA(SYNC_DATA_BASE,1);

			for (kj = 0; kj < 784; kj++) {
 20432f0:	e0bfa317 	ldw	r2,-372(fp)
 20432f4:	10800044 	addi	r2,r2,1
 20432f8:	e0bfa315 	stw	r2,-372(fp)
 20432fc:	e0bfa317 	ldw	r2,-372(fp)
 2043300:	1080c410 	cmplti	r2,r2,784
 2043304:	103fd31e 	bne	r2,zero,2043254 <__alt_data_end+0xfffc3254>
	    	memcpy(&ui, &f, sizeof (ui));
	    	IOWR_ALTERA_AVALON_PIO_DATA(ACTIVATIONS_INDEX_BASE, ki);
	    	IOWR_ALTERA_AVALON_PIO_DATA(FLOATDATA_OUTPUT_BASE, ui);
	    }

		for (ki = 0; ki < 10; ki++) {
 2043308:	e0bfa217 	ldw	r2,-376(fp)
 204330c:	10800044 	addi	r2,r2,1
 2043310:	e0bfa215 	stw	r2,-376(fp)
 2043314:	e0bfa217 	ldw	r2,-376(fp)
 2043318:	10800290 	cmplti	r2,r2,10
 204331c:	103fbb1e 	bne	r2,zero,204320c <__alt_data_end+0xfffc320c>
			}

		}


		for (ki = 0; ki < MNIST_LABELS; ki++) {
 2043320:	e03fa215 	stw	zero,-376(fp)
 2043324:	00001d06 	br	204339c <fast_version3+0x438>
			IOWR_ALTERA_AVALON_PIO_DATA(ACTIVATIONS_INDEX_BASE, ki);
 2043328:	00808234 	movhi	r2,520
 204332c:	108c0004 	addi	r2,r2,12288
 2043330:	e0ffa217 	ldw	r3,-376(fp)
 2043334:	10c00035 	stwio	r3,0(r2)
	    	IOWR_ALTERA_AVALON_PIO_DATA(SYNC_DATA_BASE,0);
 2043338:	0007883a 	mov	r3,zero
 204333c:	00808234 	movhi	r2,520
 2043340:	108c1004 	addi	r2,r2,12352
 2043344:	10c00035 	stwio	r3,0(r2)
	    	IOWR_ALTERA_AVALON_PIO_DATA(SYNC_DATA_BASE,1);
 2043348:	00c00044 	movi	r3,1
 204334c:	00808234 	movhi	r2,520
 2043350:	108c1004 	addi	r2,r2,12352
 2043354:	10c00035 	stwio	r3,0(r2)
	    	unsigned int a = IORD_ALTERA_AVALON_PIO_DATA(RESULTS_INPUT_BASE);
 2043358:	00808234 	movhi	r2,520
 204335c:	108c0404 	addi	r2,r2,12304
 2043360:	10800037 	ldwio	r2,0(r2)
 2043364:	e0bfaa15 	stw	r2,-344(fp)
	    	activations[ki] = ConvertNumberToFloat(a);
 2043368:	e13faa17 	ldw	r4,-344(fp)
 204336c:	204049c0 	call	204049c <ConvertNumberToFloat>
 2043370:	1007883a 	mov	r3,r2
 2043374:	e0bfa217 	ldw	r2,-376(fp)
 2043378:	1085883a 	add	r2,r2,r2
 204337c:	1085883a 	add	r2,r2,r2
 2043380:	e13f9d04 	addi	r4,fp,-396
 2043384:	2085883a 	add	r2,r4,r2
 2043388:	10800f04 	addi	r2,r2,60
 204338c:	10c00015 	stw	r3,0(r2)
			}

		}


		for (ki = 0; ki < MNIST_LABELS; ki++) {
 2043390:	e0bfa217 	ldw	r2,-376(fp)
 2043394:	10800044 	addi	r2,r2,1
 2043398:	e0bfa215 	stw	r2,-376(fp)
 204339c:	e0bfa217 	ldw	r2,-376(fp)
 20433a0:	10800290 	cmplti	r2,r2,10
 20433a4:	103fe01e 	bne	r2,zero,2043328 <__alt_data_end+0xfffc3328>
	    	IOWR_ALTERA_AVALON_PIO_DATA(SYNC_DATA_BASE,0);
	    	IOWR_ALTERA_AVALON_PIO_DATA(SYNC_DATA_BASE,1);
	    	unsigned int a = IORD_ALTERA_AVALON_PIO_DATA(RESULTS_INPUT_BASE);
	    	activations[ki] = ConvertNumberToFloat(a);
		}
		time = alt_timestamp();
 20433a8:	20403080 	call	2040308 <alt_timestamp>
 20433ac:	1009883a 	mov	r4,r2
 20433b0:	204cfe00 	call	204cfe0 <__floatunsisf>
 20433b4:	1007883a 	mov	r3,r2
 20433b8:	e0ffa715 	stw	r3,-356(fp)

	    for (ki = 1, kmax = activations[0]; ki < MNIST_LABELS; ki++) {
 20433bc:	00800044 	movi	r2,1
 20433c0:	e0bfa215 	stw	r2,-376(fp)
 20433c4:	e0bfac17 	ldw	r2,-336(fp)
 20433c8:	e0bfa515 	stw	r2,-364(fp)
 20433cc:	00001606 	br	2043428 <fast_version3+0x4c4>
	        if (activations[ki] > kmax) {
 20433d0:	e0bfa217 	ldw	r2,-376(fp)
 20433d4:	1085883a 	add	r2,r2,r2
 20433d8:	1085883a 	add	r2,r2,r2
 20433dc:	e0ff9d04 	addi	r3,fp,-396
 20433e0:	1885883a 	add	r2,r3,r2
 20433e4:	10800f04 	addi	r2,r2,60
 20433e8:	10c00017 	ldw	r3,0(r2)
 20433ec:	e17fa517 	ldw	r5,-364(fp)
 20433f0:	1809883a 	mov	r4,r3
 20433f4:	204c5200 	call	204c520 <__gesf2>
 20433f8:	0080080e 	bge	zero,r2,204341c <fast_version3+0x4b8>
	            kmax = activations[ki];
 20433fc:	e0bfa217 	ldw	r2,-376(fp)
 2043400:	1085883a 	add	r2,r2,r2
 2043404:	1085883a 	add	r2,r2,r2
 2043408:	e13f9d04 	addi	r4,fp,-396
 204340c:	2085883a 	add	r2,r4,r2
 2043410:	10800f04 	addi	r2,r2,60
 2043414:	10800017 	ldw	r2,0(r2)
 2043418:	e0bfa515 	stw	r2,-364(fp)
	    	unsigned int a = IORD_ALTERA_AVALON_PIO_DATA(RESULTS_INPUT_BASE);
	    	activations[ki] = ConvertNumberToFloat(a);
		}
		time = alt_timestamp();

	    for (ki = 1, kmax = activations[0]; ki < MNIST_LABELS; ki++) {
 204341c:	e0bfa217 	ldw	r2,-376(fp)
 2043420:	10800044 	addi	r2,r2,1
 2043424:	e0bfa215 	stw	r2,-376(fp)
 2043428:	e0bfa217 	ldw	r2,-376(fp)
 204342c:	10800290 	cmplti	r2,r2,10
 2043430:	103fe71e 	bne	r2,zero,20433d0 <__alt_data_end+0xfffc33d0>
	        if (activations[ki] > kmax) {
	            kmax = activations[ki];
	        }
	    }

	    for (ki = 0, ksum = 0; ki < MNIST_LABELS; ki++) {
 2043434:	e03fa215 	stw	zero,-376(fp)
 2043438:	e03fa415 	stw	zero,-368(fp)
 204343c:	00002f06 	br	20434fc <fast_version3+0x598>
	        activations[ki] = exp(activations[ki] - kmax);
 2043440:	e0bfa217 	ldw	r2,-376(fp)
 2043444:	1085883a 	add	r2,r2,r2
 2043448:	1085883a 	add	r2,r2,r2
 204344c:	e0ff9d04 	addi	r3,fp,-396
 2043450:	1885883a 	add	r2,r3,r2
 2043454:	10800f04 	addi	r2,r2,60
 2043458:	10c00017 	ldw	r3,0(r2)
 204345c:	e17fa517 	ldw	r5,-364(fp)
 2043460:	1809883a 	mov	r4,r3
 2043464:	204c9d80 	call	204c9d8 <__subsf3>
 2043468:	1007883a 	mov	r3,r2
 204346c:	1805883a 	mov	r2,r3
 2043470:	1009883a 	mov	r4,r2
 2043474:	204f62c0 	call	204f62c <__extendsfdf2>
 2043478:	100b883a 	mov	r5,r2
 204347c:	180d883a 	mov	r6,r3
 2043480:	2809883a 	mov	r4,r5
 2043484:	300b883a 	mov	r5,r6
 2043488:	20497a00 	call	20497a0 <exp>
 204348c:	100b883a 	mov	r5,r2
 2043490:	180d883a 	mov	r6,r3
 2043494:	2809883a 	mov	r4,r5
 2043498:	300b883a 	mov	r5,r6
 204349c:	204f73c0 	call	204f73c <__truncdfsf2>
 20434a0:	1007883a 	mov	r3,r2
 20434a4:	e0bfa217 	ldw	r2,-376(fp)
 20434a8:	1085883a 	add	r2,r2,r2
 20434ac:	1085883a 	add	r2,r2,r2
 20434b0:	e13f9d04 	addi	r4,fp,-396
 20434b4:	2085883a 	add	r2,r4,r2
 20434b8:	10800f04 	addi	r2,r2,60
 20434bc:	10c00015 	stw	r3,0(r2)
	        ksum += activations[ki];
 20434c0:	e0bfa217 	ldw	r2,-376(fp)
 20434c4:	1085883a 	add	r2,r2,r2
 20434c8:	1085883a 	add	r2,r2,r2
 20434cc:	e0ff9d04 	addi	r3,fp,-396
 20434d0:	1885883a 	add	r2,r3,r2
 20434d4:	10800f04 	addi	r2,r2,60
 20434d8:	10c00017 	ldw	r3,0(r2)
 20434dc:	180b883a 	mov	r5,r3
 20434e0:	e13fa417 	ldw	r4,-368(fp)
 20434e4:	204bc180 	call	204bc18 <__addsf3>
 20434e8:	1007883a 	mov	r3,r2
 20434ec:	e0ffa415 	stw	r3,-368(fp)
	        if (activations[ki] > kmax) {
	            kmax = activations[ki];
	        }
	    }

	    for (ki = 0, ksum = 0; ki < MNIST_LABELS; ki++) {
 20434f0:	e0bfa217 	ldw	r2,-376(fp)
 20434f4:	10800044 	addi	r2,r2,1
 20434f8:	e0bfa215 	stw	r2,-376(fp)
 20434fc:	e0bfa217 	ldw	r2,-376(fp)
 2043500:	10800290 	cmplti	r2,r2,10
 2043504:	103fce1e 	bne	r2,zero,2043440 <__alt_data_end+0xfffc3440>
	        activations[ki] = exp(activations[ki] - kmax);
	        ksum += activations[ki];
	    }

	    for (ki = 0; ki < MNIST_LABELS; ki++) {
 2043508:	e03fa215 	stw	zero,-376(fp)
 204350c:	00001606 	br	2043568 <fast_version3+0x604>
	        activations[ki] /= ksum;
 2043510:	e0bfa217 	ldw	r2,-376(fp)
 2043514:	1085883a 	add	r2,r2,r2
 2043518:	1085883a 	add	r2,r2,r2
 204351c:	e13f9d04 	addi	r4,fp,-396
 2043520:	2085883a 	add	r2,r4,r2
 2043524:	10800f04 	addi	r2,r2,60
 2043528:	10c00017 	ldw	r3,0(r2)
 204352c:	e17fa417 	ldw	r5,-368(fp)
 2043530:	1809883a 	mov	r4,r3
 2043534:	204c0e00 	call	204c0e0 <__divsf3>
 2043538:	1009883a 	mov	r4,r2
 204353c:	2007883a 	mov	r3,r4
 2043540:	e0bfa217 	ldw	r2,-376(fp)
 2043544:	1085883a 	add	r2,r2,r2
 2043548:	1085883a 	add	r2,r2,r2
 204354c:	e13f9d04 	addi	r4,fp,-396
 2043550:	2085883a 	add	r2,r4,r2
 2043554:	10800f04 	addi	r2,r2,60
 2043558:	10c00015 	stw	r3,0(r2)
	    for (ki = 0, ksum = 0; ki < MNIST_LABELS; ki++) {
	        activations[ki] = exp(activations[ki] - kmax);
	        ksum += activations[ki];
	    }

	    for (ki = 0; ki < MNIST_LABELS; ki++) {
 204355c:	e0bfa217 	ldw	r2,-376(fp)
 2043560:	10800044 	addi	r2,r2,1
 2043564:	e0bfa215 	stw	r2,-376(fp)
 2043568:	e0bfa217 	ldw	r2,-376(fp)
 204356c:	10800290 	cmplti	r2,r2,10
 2043570:	103fe71e 	bne	r2,zero,2043510 <__alt_data_end+0xfffc3510>
	        activations[ki] /= ksum;
	    }

		// Set predict to the index of the greatest activation
		for (j = 0, predict = 0, max_activation = activations[0]; j < MNIST_LABELS; j++) {
 2043574:	e03fa015 	stw	zero,-384(fp)
 2043578:	e03fa115 	stw	zero,-380(fp)
 204357c:	e0bfac17 	ldw	r2,-336(fp)
 2043580:	e0bf9d15 	stw	r2,-396(fp)
 2043584:	00001806 	br	20435e8 <fast_version3+0x684>
			if (max_activation < activations[j]) {
 2043588:	e0bfa017 	ldw	r2,-384(fp)
 204358c:	1085883a 	add	r2,r2,r2
 2043590:	1085883a 	add	r2,r2,r2
 2043594:	e0ff9d04 	addi	r3,fp,-396
 2043598:	1885883a 	add	r2,r3,r2
 204359c:	10800f04 	addi	r2,r2,60
 20435a0:	10c00017 	ldw	r3,0(r2)
 20435a4:	e17f9d17 	ldw	r5,-396(fp)
 20435a8:	1809883a 	mov	r4,r3
 20435ac:	204c5200 	call	204c520 <__gesf2>
 20435b0:	00800a0e 	bge	zero,r2,20435dc <fast_version3+0x678>
				max_activation = activations[j];
 20435b4:	e0bfa017 	ldw	r2,-384(fp)
 20435b8:	1085883a 	add	r2,r2,r2
 20435bc:	1085883a 	add	r2,r2,r2
 20435c0:	e13f9d04 	addi	r4,fp,-396
 20435c4:	2085883a 	add	r2,r4,r2
 20435c8:	10800f04 	addi	r2,r2,60
 20435cc:	10800017 	ldw	r2,0(r2)
 20435d0:	e0bf9d15 	stw	r2,-396(fp)
				predict = j;
 20435d4:	e0bfa017 	ldw	r2,-384(fp)
 20435d8:	e0bfa115 	stw	r2,-380(fp)
	    for (ki = 0; ki < MNIST_LABELS; ki++) {
	        activations[ki] /= ksum;
	    }

		// Set predict to the index of the greatest activation
		for (j = 0, predict = 0, max_activation = activations[0]; j < MNIST_LABELS; j++) {
 20435dc:	e0bfa017 	ldw	r2,-384(fp)
 20435e0:	10800044 	addi	r2,r2,1
 20435e4:	e0bfa015 	stw	r2,-384(fp)
 20435e8:	e0bfa017 	ldw	r2,-384(fp)
 20435ec:	10800290 	cmplti	r2,r2,10
 20435f0:	103fe51e 	bne	r2,zero,2043588 <__alt_data_end+0xfffc3588>
				max_activation = activations[j];
				predict = j;
			}
		}

		if(label == predict){
 20435f4:	e0ffa917 	ldw	r3,-348(fp)
 20435f8:	e0bfa117 	ldw	r2,-380(fp)
 20435fc:	1880141e 	bne	r3,r2,2043650 <fast_version3+0x6ec>
			TP[label]+=1;
 2043600:	e0bfa917 	ldw	r2,-348(fp)
 2043604:	1085883a 	add	r2,r2,r2
 2043608:	1085883a 	add	r2,r2,r2
 204360c:	e0ff9d04 	addi	r3,fp,-396
 2043610:	1885883a 	add	r2,r3,r2
 2043614:	10802304 	addi	r2,r2,140
 2043618:	10c00017 	ldw	r3,0(r2)
 204361c:	014fe034 	movhi	r5,16256
 2043620:	1809883a 	mov	r4,r3
 2043624:	204bc180 	call	204bc18 <__addsf3>
 2043628:	1009883a 	mov	r4,r2
 204362c:	2007883a 	mov	r3,r4
 2043630:	e0bfa917 	ldw	r2,-348(fp)
 2043634:	1085883a 	add	r2,r2,r2
 2043638:	1085883a 	add	r2,r2,r2
 204363c:	e13f9d04 	addi	r4,fp,-396
 2043640:	2085883a 	add	r2,r4,r2
 2043644:	10802304 	addi	r2,r2,140
 2043648:	10c00015 	stw	r3,0(r2)
 204364c:	00002606 	br	20436e8 <fast_version3+0x784>
		}
		else{
			FN[label]+=1;
 2043650:	e0bfa917 	ldw	r2,-348(fp)
 2043654:	1085883a 	add	r2,r2,r2
 2043658:	1085883a 	add	r2,r2,r2
 204365c:	e0ff9d04 	addi	r3,fp,-396
 2043660:	1885883a 	add	r2,r3,r2
 2043664:	10801904 	addi	r2,r2,100
 2043668:	10c00017 	ldw	r3,0(r2)
 204366c:	014fe034 	movhi	r5,16256
 2043670:	1809883a 	mov	r4,r3
 2043674:	204bc180 	call	204bc18 <__addsf3>
 2043678:	1009883a 	mov	r4,r2
 204367c:	2007883a 	mov	r3,r4
 2043680:	e0bfa917 	ldw	r2,-348(fp)
 2043684:	1085883a 	add	r2,r2,r2
 2043688:	1085883a 	add	r2,r2,r2
 204368c:	e13f9d04 	addi	r4,fp,-396
 2043690:	2085883a 	add	r2,r4,r2
 2043694:	10801904 	addi	r2,r2,100
 2043698:	10c00015 	stw	r3,0(r2)
			FP[predict]+=1;
 204369c:	e0bfa117 	ldw	r2,-380(fp)
 20436a0:	1085883a 	add	r2,r2,r2
 20436a4:	1085883a 	add	r2,r2,r2
 20436a8:	e0ff9d04 	addi	r3,fp,-396
 20436ac:	1885883a 	add	r2,r3,r2
 20436b0:	10802d04 	addi	r2,r2,180
 20436b4:	10c00017 	ldw	r3,0(r2)
 20436b8:	014fe034 	movhi	r5,16256
 20436bc:	1809883a 	mov	r4,r3
 20436c0:	204bc180 	call	204bc18 <__addsf3>
 20436c4:	1009883a 	mov	r4,r2
 20436c8:	2007883a 	mov	r3,r4
 20436cc:	e0bfa117 	ldw	r2,-380(fp)
 20436d0:	1085883a 	add	r2,r2,r2
 20436d4:	1085883a 	add	r2,r2,r2
 20436d8:	e13f9d04 	addi	r4,fp,-396
 20436dc:	2085883a 	add	r2,r4,r2
 20436e0:	10802d04 	addi	r2,r2,180
 20436e4:	10c00015 	stw	r3,0(r2)
		}


		time = (time *1000 ) / freq; //get execution time (ms)
 20436e8:	01511eb4 	movhi	r5,17530
 20436ec:	e13fa717 	ldw	r4,-356(fp)
 20436f0:	204c5dc0 	call	204c5dc <__mulsf3>
 20436f4:	1007883a 	mov	r3,r2
 20436f8:	1805883a 	mov	r2,r3
 20436fc:	e17fa817 	ldw	r5,-352(fp)
 2043700:	1009883a 	mov	r4,r2
 2043704:	204c0e00 	call	204c0e0 <__divsf3>
 2043708:	1007883a 	mov	r3,r2
 204370c:	e0ffa715 	stw	r3,-356(fp)
		avgtime += time;
 2043710:	e17fa717 	ldw	r5,-356(fp)
 2043714:	e13f9e17 	ldw	r4,-392(fp)
 2043718:	204bc180 	call	204bc18 <__addsf3>
 204371c:	1007883a 	mov	r3,r2
 2043720:	e0ff9e15 	stw	r3,-392(fp)
	char nome[14];
	time=0;
	avgtime=0;
	freq = alt_timestamp_freq();

	for (i=21; i<(nimages); i++){
 2043724:	e0bf9f17 	ldw	r2,-388(fp)
 2043728:	10800044 	addi	r2,r2,1
 204372c:	e0bf9f15 	stw	r2,-388(fp)
 2043730:	e0bffe0b 	ldhu	r2,-8(fp)
 2043734:	e0ff9f17 	ldw	r3,-388(fp)
 2043738:	18be5516 	blt	r3,r2,2043090 <__alt_data_end+0xfffc3090>
		avgtime += time;

	}

	//SHOW STATS
	alt_up_char_buffer_dev * char_buffer = NULL ;
 204373c:	e03fab15 	stw	zero,-340(fp)
	char_buffer = alt_up_char_buffer_open_dev ("/dev/video_character_buffer_with_dma_0");
 2043740:	010081b4 	movhi	r4,518
 2043744:	210ad304 	addi	r4,r4,11084
 2043748:	2060fa80 	call	2060fa8 <alt_up_char_buffer_open_dev>
 204374c:	e0bfab15 	stw	r2,-340(fp)
	alt_up_char_buffer_init(char_buffer);
 2043750:	e13fab17 	ldw	r4,-340(fp)
 2043754:	2060f280 	call	2060f28 <alt_up_char_buffer_init>
	alt_up_char_buffer_clear(char_buffer);
 2043758:	e13fab17 	ldw	r4,-340(fp)
 204375c:	20611ac0 	call	20611ac <alt_up_char_buffer_clear>

	time    = avgtime;
 2043760:	e0bf9e17 	ldw	r2,-392(fp)
 2043764:	e0bfa715 	stw	r2,-356(fp)
	avgtime = avgtime/nimages;
 2043768:	e0bffe0b 	ldhu	r2,-8(fp)
 204376c:	1009883a 	mov	r4,r2
 2043770:	204cebc0 	call	204cebc <__floatsisf>
 2043774:	1007883a 	mov	r3,r2
 2043778:	180b883a 	mov	r5,r3
 204377c:	e13f9e17 	ldw	r4,-392(fp)
 2043780:	204c0e00 	call	204c0e0 <__divsf3>
 2043784:	1007883a 	mov	r3,r2
 2043788:	e0ff9e15 	stw	r3,-392(fp)
	char str[20];

	alt_up_char_buffer_string(char_buffer ,"Statistics: ",28,5);
 204378c:	01c00144 	movi	r7,5
 2043790:	01800704 	movi	r6,28
 2043794:	014081b4 	movhi	r5,518
 2043798:	294ae804 	addi	r5,r5,11168
 204379c:	e13fab17 	ldw	r4,-340(fp)
 20437a0:	20610b00 	call	20610b0 <alt_up_char_buffer_string>
	alt_up_char_buffer_string(char_buffer ,"Execution time:",28,15);
 20437a4:	01c003c4 	movi	r7,15
 20437a8:	01800704 	movi	r6,28
 20437ac:	014081b4 	movhi	r5,518
 20437b0:	294b0904 	addi	r5,r5,11300
 20437b4:	e13fab17 	ldw	r4,-340(fp)
 20437b8:	20610b00 	call	20610b0 <alt_up_char_buffer_string>
	sprintf(str, "%.3f s", time/1000);
 20437bc:	01511eb4 	movhi	r5,17530
 20437c0:	e13fa717 	ldw	r4,-356(fp)
 20437c4:	204c0e00 	call	204c0e0 <__divsf3>
 20437c8:	1007883a 	mov	r3,r2
 20437cc:	1805883a 	mov	r2,r3
 20437d0:	1009883a 	mov	r4,r2
 20437d4:	204f62c0 	call	204f62c <__extendsfdf2>
 20437d8:	1009883a 	mov	r4,r2
 20437dc:	180b883a 	mov	r5,r3
 20437e0:	e0bff584 	addi	r2,fp,-42
 20437e4:	200d883a 	mov	r6,r4
 20437e8:	280f883a 	mov	r7,r5
 20437ec:	014081b4 	movhi	r5,518
 20437f0:	294b0d04 	addi	r5,r5,11316
 20437f4:	1009883a 	mov	r4,r2
 20437f8:	20507dc0 	call	20507dc <sprintf>
	alt_up_char_buffer_string(char_buffer ,str,28+30,15);
 20437fc:	e0bff584 	addi	r2,fp,-42
 2043800:	01c003c4 	movi	r7,15
 2043804:	01800e84 	movi	r6,58
 2043808:	100b883a 	mov	r5,r2
 204380c:	e13fab17 	ldw	r4,-340(fp)
 2043810:	20610b00 	call	20610b0 <alt_up_char_buffer_string>

	alt_up_char_buffer_string(char_buffer ,"Avg time per sample:",28,17);
 2043814:	01c00444 	movi	r7,17
 2043818:	01800704 	movi	r6,28
 204381c:	014081b4 	movhi	r5,518
 2043820:	294aec04 	addi	r5,r5,11184
 2043824:	e13fab17 	ldw	r4,-340(fp)
 2043828:	20610b00 	call	20610b0 <alt_up_char_buffer_string>
	sprintf(str, "%.3f ms", avgtime);
 204382c:	e13f9e17 	ldw	r4,-392(fp)
 2043830:	204f62c0 	call	204f62c <__extendsfdf2>
 2043834:	1009883a 	mov	r4,r2
 2043838:	180b883a 	mov	r5,r3
 204383c:	e0bff584 	addi	r2,fp,-42
 2043840:	200d883a 	mov	r6,r4
 2043844:	280f883a 	mov	r7,r5
 2043848:	014081b4 	movhi	r5,518
 204384c:	294af204 	addi	r5,r5,11208
 2043850:	1009883a 	mov	r4,r2
 2043854:	20507dc0 	call	20507dc <sprintf>
	alt_up_char_buffer_string(char_buffer ,str,28+30,17);
 2043858:	e0bff584 	addi	r2,fp,-42
 204385c:	01c00444 	movi	r7,17
 2043860:	01800e84 	movi	r6,58
 2043864:	100b883a 	mov	r5,r2
 2043868:	e13fab17 	ldw	r4,-340(fp)
 204386c:	20610b00 	call	20610b0 <alt_up_char_buffer_string>

	alt_up_char_buffer_string(char_buffer ,"label",10,22);
 2043870:	01c00584 	movi	r7,22
 2043874:	01800284 	movi	r6,10
 2043878:	014081b4 	movhi	r5,518
 204387c:	294af404 	addi	r5,r5,11216
 2043880:	e13fab17 	ldw	r4,-340(fp)
 2043884:	20610b00 	call	20610b0 <alt_up_char_buffer_string>
	alt_up_char_buffer_string(char_buffer ,"Precision",25,22);
 2043888:	01c00584 	movi	r7,22
 204388c:	01800644 	movi	r6,25
 2043890:	014081b4 	movhi	r5,518
 2043894:	294af604 	addi	r5,r5,11224
 2043898:	e13fab17 	ldw	r4,-340(fp)
 204389c:	20610b00 	call	20610b0 <alt_up_char_buffer_string>
	alt_up_char_buffer_string(char_buffer ,"Recall",40,22);
 20438a0:	01c00584 	movi	r7,22
 20438a4:	01800a04 	movi	r6,40
 20438a8:	014081b4 	movhi	r5,518
 20438ac:	294af904 	addi	r5,r5,11236
 20438b0:	e13fab17 	ldw	r4,-340(fp)
 20438b4:	20610b00 	call	20610b0 <alt_up_char_buffer_string>
	alt_up_char_buffer_string(char_buffer ,"F1 Score",55,22);
 20438b8:	01c00584 	movi	r7,22
 20438bc:	01800dc4 	movi	r6,55
 20438c0:	014081b4 	movhi	r5,518
 20438c4:	294afb04 	addi	r5,r5,11244
 20438c8:	e13fab17 	ldw	r4,-340(fp)
 20438cc:	20610b00 	call	20610b0 <alt_up_char_buffer_string>

	for (i = 0; i<10; i++){
 20438d0:	e03f9f15 	stw	zero,-388(fp)
 20438d4:	0000e606 	br	2043c70 <fast_version3+0xd0c>
		sprintf(str, "|%d ->", i);
 20438d8:	e0bff584 	addi	r2,fp,-42
 20438dc:	e1bf9f17 	ldw	r6,-388(fp)
 20438e0:	014081b4 	movhi	r5,518
 20438e4:	294afe04 	addi	r5,r5,11256
 20438e8:	1009883a 	mov	r4,r2
 20438ec:	20507dc0 	call	20507dc <sprintf>
		alt_up_char_buffer_string(char_buffer ,str,10,24+i);
 20438f0:	e0bf9f17 	ldw	r2,-388(fp)
 20438f4:	10800604 	addi	r2,r2,24
 20438f8:	1007883a 	mov	r3,r2
 20438fc:	e0bff584 	addi	r2,fp,-42
 2043900:	180f883a 	mov	r7,r3
 2043904:	01800284 	movi	r6,10
 2043908:	100b883a 	mov	r5,r2
 204390c:	e13fab17 	ldw	r4,-340(fp)
 2043910:	20610b00 	call	20610b0 <alt_up_char_buffer_string>

		precision[i]=TP[i]/(TP[i]+FP[i]);
 2043914:	e0bf9f17 	ldw	r2,-388(fp)
 2043918:	1085883a 	add	r2,r2,r2
 204391c:	1085883a 	add	r2,r2,r2
 2043920:	e0ff9d04 	addi	r3,fp,-396
 2043924:	1885883a 	add	r2,r3,r2
 2043928:	10802304 	addi	r2,r2,140
 204392c:	14000017 	ldw	r16,0(r2)
 2043930:	e0bf9f17 	ldw	r2,-388(fp)
 2043934:	1085883a 	add	r2,r2,r2
 2043938:	1085883a 	add	r2,r2,r2
 204393c:	e13f9d04 	addi	r4,fp,-396
 2043940:	2085883a 	add	r2,r4,r2
 2043944:	10802304 	addi	r2,r2,140
 2043948:	10c00017 	ldw	r3,0(r2)
 204394c:	e0bf9f17 	ldw	r2,-388(fp)
 2043950:	1085883a 	add	r2,r2,r2
 2043954:	1085883a 	add	r2,r2,r2
 2043958:	e13f9d04 	addi	r4,fp,-396
 204395c:	2085883a 	add	r2,r4,r2
 2043960:	10802d04 	addi	r2,r2,180
 2043964:	11000017 	ldw	r4,0(r2)
 2043968:	200b883a 	mov	r5,r4
 204396c:	1809883a 	mov	r4,r3
 2043970:	204bc180 	call	204bc18 <__addsf3>
 2043974:	1007883a 	mov	r3,r2
 2043978:	1805883a 	mov	r2,r3
 204397c:	100b883a 	mov	r5,r2
 2043980:	8009883a 	mov	r4,r16
 2043984:	204c0e00 	call	204c0e0 <__divsf3>
 2043988:	1009883a 	mov	r4,r2
 204398c:	2007883a 	mov	r3,r4
 2043990:	e0bf9f17 	ldw	r2,-388(fp)
 2043994:	1085883a 	add	r2,r2,r2
 2043998:	1085883a 	add	r2,r2,r2
 204399c:	e13f9d04 	addi	r4,fp,-396
 20439a0:	2085883a 	add	r2,r4,r2
 20439a4:	10803704 	addi	r2,r2,220
 20439a8:	10c00015 	stw	r3,0(r2)
		sprintf(str, "%.2f", precision[i]);
 20439ac:	e0bf9f17 	ldw	r2,-388(fp)
 20439b0:	1085883a 	add	r2,r2,r2
 20439b4:	1085883a 	add	r2,r2,r2
 20439b8:	e0ff9d04 	addi	r3,fp,-396
 20439bc:	1885883a 	add	r2,r3,r2
 20439c0:	10803704 	addi	r2,r2,220
 20439c4:	10c00017 	ldw	r3,0(r2)
 20439c8:	1809883a 	mov	r4,r3
 20439cc:	204f62c0 	call	204f62c <__extendsfdf2>
 20439d0:	1009883a 	mov	r4,r2
 20439d4:	180b883a 	mov	r5,r3
 20439d8:	e0bff584 	addi	r2,fp,-42
 20439dc:	200d883a 	mov	r6,r4
 20439e0:	280f883a 	mov	r7,r5
 20439e4:	014081b4 	movhi	r5,518
 20439e8:	294b0004 	addi	r5,r5,11264
 20439ec:	1009883a 	mov	r4,r2
 20439f0:	20507dc0 	call	20507dc <sprintf>
		alt_up_char_buffer_string(char_buffer ,str,25,24+i);
 20439f4:	e0bf9f17 	ldw	r2,-388(fp)
 20439f8:	10800604 	addi	r2,r2,24
 20439fc:	1007883a 	mov	r3,r2
 2043a00:	e0bff584 	addi	r2,fp,-42
 2043a04:	180f883a 	mov	r7,r3
 2043a08:	01800644 	movi	r6,25
 2043a0c:	100b883a 	mov	r5,r2
 2043a10:	e13fab17 	ldw	r4,-340(fp)
 2043a14:	20610b00 	call	20610b0 <alt_up_char_buffer_string>

		recall[i]=TP[i]/(TP[i]+FN[i]);
 2043a18:	e0bf9f17 	ldw	r2,-388(fp)
 2043a1c:	1085883a 	add	r2,r2,r2
 2043a20:	1085883a 	add	r2,r2,r2
 2043a24:	e13f9d04 	addi	r4,fp,-396
 2043a28:	2085883a 	add	r2,r4,r2
 2043a2c:	10802304 	addi	r2,r2,140
 2043a30:	14000017 	ldw	r16,0(r2)
 2043a34:	e0bf9f17 	ldw	r2,-388(fp)
 2043a38:	1085883a 	add	r2,r2,r2
 2043a3c:	1085883a 	add	r2,r2,r2
 2043a40:	e0ff9d04 	addi	r3,fp,-396
 2043a44:	1885883a 	add	r2,r3,r2
 2043a48:	10802304 	addi	r2,r2,140
 2043a4c:	10c00017 	ldw	r3,0(r2)
 2043a50:	e0bf9f17 	ldw	r2,-388(fp)
 2043a54:	1085883a 	add	r2,r2,r2
 2043a58:	1085883a 	add	r2,r2,r2
 2043a5c:	e13f9d04 	addi	r4,fp,-396
 2043a60:	2085883a 	add	r2,r4,r2
 2043a64:	10801904 	addi	r2,r2,100
 2043a68:	11000017 	ldw	r4,0(r2)
 2043a6c:	200b883a 	mov	r5,r4
 2043a70:	1809883a 	mov	r4,r3
 2043a74:	204bc180 	call	204bc18 <__addsf3>
 2043a78:	1007883a 	mov	r3,r2
 2043a7c:	1805883a 	mov	r2,r3
 2043a80:	100b883a 	mov	r5,r2
 2043a84:	8009883a 	mov	r4,r16
 2043a88:	204c0e00 	call	204c0e0 <__divsf3>
 2043a8c:	1009883a 	mov	r4,r2
 2043a90:	2007883a 	mov	r3,r4
 2043a94:	e0bf9f17 	ldw	r2,-388(fp)
 2043a98:	1085883a 	add	r2,r2,r2
 2043a9c:	1085883a 	add	r2,r2,r2
 2043aa0:	e13f9d04 	addi	r4,fp,-396
 2043aa4:	2085883a 	add	r2,r4,r2
 2043aa8:	10804104 	addi	r2,r2,260
 2043aac:	10c00015 	stw	r3,0(r2)
		sprintf(str, "%.2f", recall[i]);
 2043ab0:	e0bf9f17 	ldw	r2,-388(fp)
 2043ab4:	1085883a 	add	r2,r2,r2
 2043ab8:	1085883a 	add	r2,r2,r2
 2043abc:	e0ff9d04 	addi	r3,fp,-396
 2043ac0:	1885883a 	add	r2,r3,r2
 2043ac4:	10804104 	addi	r2,r2,260
 2043ac8:	10c00017 	ldw	r3,0(r2)
 2043acc:	1809883a 	mov	r4,r3
 2043ad0:	204f62c0 	call	204f62c <__extendsfdf2>
 2043ad4:	1009883a 	mov	r4,r2
 2043ad8:	180b883a 	mov	r5,r3
 2043adc:	e0bff584 	addi	r2,fp,-42
 2043ae0:	200d883a 	mov	r6,r4
 2043ae4:	280f883a 	mov	r7,r5
 2043ae8:	014081b4 	movhi	r5,518
 2043aec:	294b0004 	addi	r5,r5,11264
 2043af0:	1009883a 	mov	r4,r2
 2043af4:	20507dc0 	call	20507dc <sprintf>
		alt_up_char_buffer_string(char_buffer ,str,40,24+i);
 2043af8:	e0bf9f17 	ldw	r2,-388(fp)
 2043afc:	10800604 	addi	r2,r2,24
 2043b00:	1007883a 	mov	r3,r2
 2043b04:	e0bff584 	addi	r2,fp,-42
 2043b08:	180f883a 	mov	r7,r3
 2043b0c:	01800a04 	movi	r6,40
 2043b10:	100b883a 	mov	r5,r2
 2043b14:	e13fab17 	ldw	r4,-340(fp)
 2043b18:	20610b00 	call	20610b0 <alt_up_char_buffer_string>

		f1scores[i]=2*((precision[i]*recall[i])/(precision[i]+recall[i]));
 2043b1c:	e0bf9f17 	ldw	r2,-388(fp)
 2043b20:	1085883a 	add	r2,r2,r2
 2043b24:	1085883a 	add	r2,r2,r2
 2043b28:	e13f9d04 	addi	r4,fp,-396
 2043b2c:	2085883a 	add	r2,r4,r2
 2043b30:	10803704 	addi	r2,r2,220
 2043b34:	10c00017 	ldw	r3,0(r2)
 2043b38:	e0bf9f17 	ldw	r2,-388(fp)
 2043b3c:	1085883a 	add	r2,r2,r2
 2043b40:	1085883a 	add	r2,r2,r2
 2043b44:	e13f9d04 	addi	r4,fp,-396
 2043b48:	2085883a 	add	r2,r4,r2
 2043b4c:	10804104 	addi	r2,r2,260
 2043b50:	11000017 	ldw	r4,0(r2)
 2043b54:	200b883a 	mov	r5,r4
 2043b58:	1809883a 	mov	r4,r3
 2043b5c:	204c5dc0 	call	204c5dc <__mulsf3>
 2043b60:	1007883a 	mov	r3,r2
 2043b64:	1821883a 	mov	r16,r3
 2043b68:	e0bf9f17 	ldw	r2,-388(fp)
 2043b6c:	1085883a 	add	r2,r2,r2
 2043b70:	1085883a 	add	r2,r2,r2
 2043b74:	e0ff9d04 	addi	r3,fp,-396
 2043b78:	1885883a 	add	r2,r3,r2
 2043b7c:	10803704 	addi	r2,r2,220
 2043b80:	10c00017 	ldw	r3,0(r2)
 2043b84:	e0bf9f17 	ldw	r2,-388(fp)
 2043b88:	1085883a 	add	r2,r2,r2
 2043b8c:	1085883a 	add	r2,r2,r2
 2043b90:	e13f9d04 	addi	r4,fp,-396
 2043b94:	2085883a 	add	r2,r4,r2
 2043b98:	10804104 	addi	r2,r2,260
 2043b9c:	11000017 	ldw	r4,0(r2)
 2043ba0:	200b883a 	mov	r5,r4
 2043ba4:	1809883a 	mov	r4,r3
 2043ba8:	204bc180 	call	204bc18 <__addsf3>
 2043bac:	1007883a 	mov	r3,r2
 2043bb0:	1805883a 	mov	r2,r3
 2043bb4:	100b883a 	mov	r5,r2
 2043bb8:	8009883a 	mov	r4,r16
 2043bbc:	204c0e00 	call	204c0e0 <__divsf3>
 2043bc0:	1007883a 	mov	r3,r2
 2043bc4:	1805883a 	mov	r2,r3
 2043bc8:	100b883a 	mov	r5,r2
 2043bcc:	1009883a 	mov	r4,r2
 2043bd0:	204bc180 	call	204bc18 <__addsf3>
 2043bd4:	1009883a 	mov	r4,r2
 2043bd8:	2007883a 	mov	r3,r4
 2043bdc:	e0bf9f17 	ldw	r2,-388(fp)
 2043be0:	1085883a 	add	r2,r2,r2
 2043be4:	1085883a 	add	r2,r2,r2
 2043be8:	e13f9d04 	addi	r4,fp,-396
 2043bec:	2085883a 	add	r2,r4,r2
 2043bf0:	10804b04 	addi	r2,r2,300
 2043bf4:	10c00015 	stw	r3,0(r2)
		sprintf(str, "%.2f", f1scores[i]);
 2043bf8:	e0bf9f17 	ldw	r2,-388(fp)
 2043bfc:	1085883a 	add	r2,r2,r2
 2043c00:	1085883a 	add	r2,r2,r2
 2043c04:	e0ff9d04 	addi	r3,fp,-396
 2043c08:	1885883a 	add	r2,r3,r2
 2043c0c:	10804b04 	addi	r2,r2,300
 2043c10:	10c00017 	ldw	r3,0(r2)
 2043c14:	1809883a 	mov	r4,r3
 2043c18:	204f62c0 	call	204f62c <__extendsfdf2>
 2043c1c:	1009883a 	mov	r4,r2
 2043c20:	180b883a 	mov	r5,r3
 2043c24:	e0bff584 	addi	r2,fp,-42
 2043c28:	200d883a 	mov	r6,r4
 2043c2c:	280f883a 	mov	r7,r5
 2043c30:	014081b4 	movhi	r5,518
 2043c34:	294b0004 	addi	r5,r5,11264
 2043c38:	1009883a 	mov	r4,r2
 2043c3c:	20507dc0 	call	20507dc <sprintf>
		alt_up_char_buffer_string(char_buffer ,str,55,24+i);
 2043c40:	e0bf9f17 	ldw	r2,-388(fp)
 2043c44:	10800604 	addi	r2,r2,24
 2043c48:	1007883a 	mov	r3,r2
 2043c4c:	e0bff584 	addi	r2,fp,-42
 2043c50:	180f883a 	mov	r7,r3
 2043c54:	01800dc4 	movi	r6,55
 2043c58:	100b883a 	mov	r5,r2
 2043c5c:	e13fab17 	ldw	r4,-340(fp)
 2043c60:	20610b00 	call	20610b0 <alt_up_char_buffer_string>
	alt_up_char_buffer_string(char_buffer ,"label",10,22);
	alt_up_char_buffer_string(char_buffer ,"Precision",25,22);
	alt_up_char_buffer_string(char_buffer ,"Recall",40,22);
	alt_up_char_buffer_string(char_buffer ,"F1 Score",55,22);

	for (i = 0; i<10; i++){
 2043c64:	e0bf9f17 	ldw	r2,-388(fp)
 2043c68:	10800044 	addi	r2,r2,1
 2043c6c:	e0bf9f15 	stw	r2,-388(fp)
 2043c70:	e0bf9f17 	ldw	r2,-388(fp)
 2043c74:	10800290 	cmplti	r2,r2,10
 2043c78:	103f171e 	bne	r2,zero,20438d8 <__alt_data_end+0xfffc38d8>
		f1scores[i]=2*((precision[i]*recall[i])/(precision[i]+recall[i]));
		sprintf(str, "%.2f", f1scores[i]);
		alt_up_char_buffer_string(char_buffer ,str,55,24+i);
	}

	alt_up_char_buffer_string(char_buffer ,"press key[0] to restart ",28,48);
 2043c7c:	01c00c04 	movi	r7,48
 2043c80:	01800704 	movi	r6,28
 2043c84:	014081b4 	movhi	r5,518
 2043c88:	294b0204 	addi	r5,r5,11272
 2043c8c:	e13fab17 	ldw	r4,-340(fp)
 2043c90:	20610b00 	call	20610b0 <alt_up_char_buffer_string>

	free(pixels);
 2043c94:	e13fa617 	ldw	r4,-360(fp)
 2043c98:	204f9840 	call	204f984 <free>
	return 1;
 2043c9c:	00800044 	movi	r2,1
}
 2043ca0:	e6ffff04 	addi	sp,fp,-4
 2043ca4:	dfc00217 	ldw	ra,8(sp)
 2043ca8:	df000117 	ldw	fp,4(sp)
 2043cac:	dc000017 	ldw	r16,0(sp)
 2043cb0:	dec00704 	addi	sp,sp,28
 2043cb4:	f800283a 	ret

02043cb8 <main>:

//-----------------------------
int main(){
 2043cb8:	dee15004 	addi	sp,sp,-31424
 2043cbc:	dfdeaf15 	stw	ra,31420(sp)
 2043cc0:	df1eae15 	stw	fp,31416(sp)
 2043cc4:	dc1ead15 	stw	r16,31412(sp)
 2043cc8:	df1eae04 	addi	fp,sp,31416
	IOWR_ALTERA_AVALON_PIO_DATA(LEDR_BASE, 0);
 2043ccc:	0007883a 	mov	r3,zero
 2043cd0:	00808234 	movhi	r2,520
 2043cd4:	108c2404 	addi	r2,r2,12432
 2043cd8:	10c00035 	stwio	r3,0(r2)
	IOWR_ALTERA_AVALON_PIO_DATA(LEDG_BASE, 0);
 2043cdc:	0007883a 	mov	r3,zero
 2043ce0:	00808234 	movhi	r2,520
 2043ce4:	108c2004 	addi	r2,r2,12416
 2043ce8:	10c00035 	stwio	r3,0(r2)

    FAT_HANDLE hFat;
	hFat = Fat_Mount(FAT_SD_CARD, 0);
 2043cec:	000b883a 	mov	r5,zero
 2043cf0:	0009883a 	mov	r4,zero
 2043cf4:	2044ca80 	call	2044ca8 <Fat_Mount>
 2043cf8:	e0bffc15 	stw	r2,-16(fp)

	if (hFat){
 2043cfc:	e0bffc17 	ldw	r2,-16(fp)
 2043d00:	1000ed26 	beq	r2,zero,20440b8 <main+0x400>
		printf("SD card mount success!\n");
 2043d04:	010081b4 	movhi	r4,518
 2043d08:	210b0f04 	addi	r4,r4,11324
 2043d0c:	20505600 	call	2050560 <puts>
						{0.037446,0.137761,0.771813,0.623066,0.634816,0.925901,0.504898,0.617573,0.610736,0.496658,0.165807,0.907620,0.744666,0.615920,0.645009,0.757714,0.934874,0.013337,0.980682,0.872127,0.112033,0.266182,0.832026,0.599963,0.748924,0.896268,0.313791,0.056398,0.621540,0.710776,0.098483,0.441237,0.978759,0.918790,0.192407,0.335544,0.775626,0.053347,0.291254,0.259191,0.131036,0.235592,0.123807,0.267732,0.653613,0.798454,0.685371,0.874368,0.813010,0.822269,0.773560,0.069577,0.991455,0.603168,0.723685,0.732841,0.380016,0.554521,0.762291,0.206487,0.387679,0.653559,0.874070,0.314737,0.692799,0.863346,0.582749,0.612847,0.624751,0.651996,0.594218,0.153711,0.023204,0.110565,0.701039,0.578399,0.193179,0.547459,0.594289,0.611738,0.119668,0.483551,0.648152,0.166509,0.744743,0.601642,0.781235,0.916765,0.211317,0.549820,0.370318,0.300466,0.885210,0.386591,0.859236,0.285326,0.384771,0.420729,0.571130,0.526752,0.063432,0.408419,0.873937,0.495711,0.133069,0.927839,0.742592,0.594376,0.438532,0.923232,0.509087,0.844325,0.489212,0.329783,0.827338,0.741147,0.885667,0.957459,0.117358,0.956421,0.907304,0.023050,0.097500,0.238900,0.608253,0.761382,0.715046,0.800924,0.586426,0.329293,0.356525,0.357709,0.336994,0.035689,0.867646,0.773917,0.062094,0.192724,0.140102,0.918726,0.739860,0.103397,0.076091,0.841564,0.326346,0.331743,0.515231,0.214579,0.172246,0.640018,0.646990,0.614625,0.367025,0.851866,0.740983,0.453226,0.869841,0.527595,0.757177,0.308592,0.719174,0.058665,0.704542,0.494284,0.577461,0.526444,0.256671,0.100732,0.176489,0.947049,0.761854,0.090982,0.700897,0.404269,0.401061,0.202938,0.836232,0.362000,0.414135,0.366441,0.876675,0.392108,0.903214,0.519436,1.052782,0.250081,0.670812,0.568608,0.393463,0.552238,0.842574,0.768801,0.868564,0.505931,0.631690,0.626929,0.016091,0.967725,0.782164,0.641174,0.593404,-0.031691,0.479078,0.543972,0.424119,0.602440,0.577922,0.306830,0.145808,0.199959,0.580666,0.696909,0.142713,0.598150,0.434647,0.373450,0.510573,0.519815,0.134240,0.690726,0.172834,0.508499,0.222159,0.249176,0.873559,0.152143,0.193925,0.784916,0.215145,0.558447,0.036170,0.326031,0.387436,0.792803,0.488425,0.764857,0.818070,0.753954,0.059861,0.263512,0.717005,0.528030,0.575001,0.591778,0.717904,0.834051,1.023946,0.780657,0.740625,0.252676,0.035578,0.773254,0.093216,0.741869,0.937629,0.136535,0.736416,0.883879,0.521596,0.909216,0.617497,0.736659,0.969315,0.423004,0.254350,0.363876,0.478451,0.366013,0.122578,0.494963,0.718078,0.541133,0.369841,0.513388,0.553793,0.735754,0.269138,0.889184,0.319996,0.010046,0.644333,0.926159,0.682244,0.604811,0.434313,0.915908,0.400797,0.884668,0.585947,0.311517,0.550071,0.672585,0.891042,0.427322,0.219589,0.256779,0.006145,0.414984,0.695379,0.898572,1.042993,0.261510,1.173285,0.791105,0.141896,0.179415,0.786082,0.804913,0.175599,0.046599,0.019678,0.028953,0.422002,0.776067,0.420327,0.538925,1.039787,0.779462,0.891613,0.475822,0.944162,0.626065,0.856851,0.671264,0.322104,0.302035,0.617840,0.260399,0.460042,0.771538,0.609713,0.510740,0.937127,1.006797,1.008015,0.764171,0.320992,0.063076,0.985407,0.038822,0.081662,0.931277,1.014717,0.494781,0.915180,0.454449,0.616566,0.466562,0.708021,0.800137,0.658263,0.423559,0.505278,0.509474,0.330916,0.769910,1.044342,0.687046,0.657433,0.302731,0.391821,0.676928,0.117999,0.608290,0.851495,0.468213,0.178900,0.052029,0.796954,0.446870,0.449280,0.031101,0.582025,0.376617,0.255525,0.878235,0.290362,1.130048,0.079430,0.878731,0.441662,0.075491,0.709203,0.568944,0.386447,0.655502,0.828934,0.362016,0.605320,0.313242,0.142215,0.712696,0.766301,0.391121,0.335937,0.018528,0.902642,0.895339,0.271263,0.740857,0.089917,0.555730,0.619934,0.708046,1.059295,0.715874,0.936401,0.284792,0.694421,0.776482,0.446614,0.393925,0.175438,0.646677,0.360001,-0.024792,0.621510,0.836802,0.641888,0.535209,0.917336,0.098215,0.692903,0.632025,0.636354,0.122578,0.011284,0.059749,0.766397,0.174588,0.211306,0.550464,0.526830,1.020101,1.021454,0.764632,0.010825,0.594259,0.504119,0.266837,-0.035926,0.185306,0.049344,0.077273,0.812518,0.025268,0.067126,0.823085,0.260271,0.614361,-0.000365,0.674463,0.030254,0.128881,0.122093,0.289128,0.464020,0.437835,0.798487,0.794816,0.996658,0.867984,0.471611,0.648778,0.457868,0.562893,0.116112,0.037555,0.655203,-0.017064,0.596879,0.245963,0.839909,0.522740,0.738168,0.085352,0.326945,0.681549,0.517806,0.389896,0.731223,0.308897,0.742695,0.587857,0.516199,0.636713,0.716916,0.915869,0.903002,0.918921,0.609005,0.693767,0.296412,0.359243,0.295872,0.690843,0.679695,0.271834,0.659066,0.360702,0.183027,0.907178,0.752194,0.283064,0.011512,0.774763,0.848848,0.386225,0.126224,0.277939,0.497402,0.637456,0.789710,0.686523,0.976841,0.672272,0.850308,0.730097,0.230230,0.798595,0.299455,0.635757,0.231803,0.153299,0.131974,0.581569,0.370089,0.462815,0.204322,0.392553,0.634979,0.226836,0.265602,0.392512,0.938559,0.022258,0.191919,0.810130,0.894926,0.697375,0.458174,1.088950,0.494899,0.441453,0.691886,0.056442,0.382101,0.860445,0.067447,0.404642,0.267951,0.761080,0.487516,0.561621,0.578665,0.563735,0.898802,0.423340,0.090793,0.635591,0.794427,0.342282,0.095489,0.675229,0.315735,0.439345,0.273583,0.574122,0.486501,0.419775,0.718413,0.295263,0.630572,0.631189,0.206255,0.608399,0.494033,0.667325,0.750397,0.583613,0.617473,0.552969,0.799412,0.201965,0.812081,0.210096,0.772758,0.327492,0.349494,0.238370,0.370532,0.025813,0.557218,0.280553,1.158644,0.531729,0.657261,0.392078,0.303140,0.657799,0.465297,0.669748,0.409160,0.455569,0.412132,0.171623,0.523718,0.143381,0.712861,0.900222,0.950216,0.494191,0.027238,0.926743,0.289588,0.521955,0.710436,0.930752,0.145929,0.623146,0.695053,0.396157,0.922699,0.473393,0.399451,0.275286,0.733176,0.393530,0.422440,1.104200,0.446591,0.312713,0.548172,0.941032,0.392964,0.445212,0.556834,0.270059,0.337210,0.323621,0.345492,0.657449,0.353576,0.707780,0.949767,0.086032,0.270917,0.870933,0.064332,0.414026,-0.188832,0.631285,0.441538,0.196183,0.686994,0.634475,0.912171,0.762519,0.989767,0.843056,0.432418,0.808730,0.961714,0.948934,0.876484,0.524908,0.769077,0.212555,0.155123,0.098806,0.462422,0.054201,0.075106,0.636067,0.583763,0.825722,0.195763,0.201834,0.410807,0.545065,0.094048,0.898208,0.754653,0.415852,0.632227,0.598834,0.737384,0.826384,0.776041,0.418364,0.661700,0.308857,0.342982,0.537825,0.190537,0.229002,0.201108,0.882615,0.879204,0.831751,0.641743,0.314920,0.182580,0.822669,0.882932,0.671674,0.817264,0.196393,0.158671,0.182312,0.679224,0.870270,0.136528,0.153308,0.155361,0.878267,0.522643,0.444640,0.481987,0.513188,0.193478,0.513636,0.503767,0.892123,0.606828,0.649286,0.278218,0.811396,0.429701,0.002594,0.267464,0.220454,0.515610,0.417987,0.910026,0.403597,0.738189,0.588246,0.575400,0.139433,0.298034,0.755947,0.851410,0.748820,0.750596,0.166693,0.246112,0.835941,0.467243,0.227105,0.874784,0.133991,0.480020,0.586413,0.932798,0.111393,0.779199,0.094089,0.906980,0.558367,0.745838,0.023710,0.373375,0.159315,0.634435,0.183056,0.687516,0.996160,0.236465,0.582912,0.132776,0.759242,0.357110,0.669737,0.384283,0.003704,0.240854,0.609151,0.690098,0.116303,0.640950,0.733696,0.747246,0.459700},
						{0.612384,0.574572,0.292459,0.119938,0.810724,0.368725,0.853969,0.269509,0.861690,0.710776,0.360485,0.099368,0.481947,0.043514,0.198761,0.797326,0.564501,0.825953,0.098117,0.375164,0.973754,0.257485,0.562090,0.498611,0.684347,0.002136,0.341288,0.193640,0.284677,0.795282,0.228370,0.586596,0.382610,0.352788,0.956516,0.332901,0.942125,0.485082,0.482600,0.892390,0.082910,0.821846,0.438824,0.309903,0.376532,0.057610,0.024977,0.645137,0.172590,0.117526,0.136822,0.719952,0.946745,0.144444,0.999023,0.347392,0.299905,0.747673,0.093417,0.674127,0.522885,0.369242,0.655107,0.810060,0.331749,0.207812,0.519979,0.394430,0.778569,0.601288,0.629658,0.274968,0.883995,0.257051,0.894930,0.935877,0.089938,0.345916,0.894572,0.779531,0.675315,0.471570,0.756859,0.018403,0.967071,0.164739,0.209814,0.352973,0.009209,0.518125,0.847677,0.897576,0.230274,0.324106,0.329424,0.700857,0.525366,0.093638,0.284176,0.504490,0.703373,0.548138,0.870248,0.898336,0.226754,0.697196,0.230906,0.979788,0.989180,0.051793,0.633869,0.977020,0.992157,0.377056,0.739524,0.175817,0.567564,0.963670,0.482484,0.839346,-0.019917,0.851365,0.872371,0.858153,0.276322,0.022907,0.196095,0.289893,0.554509,-0.086900,0.479730,0.357799,0.523891,0.884896,0.296583,0.026665,0.593688,0.723555,0.717761,0.637914,0.593432,0.842586,0.470389,0.793328,0.693950,0.326198,0.714378,0.294735,0.321065,0.578598,0.464647,0.098239,0.345054,0.710440,0.642663,0.161504,-0.043049,0.501681,-0.013223,0.019973,0.301600,0.001749,0.365135,0.718070,0.892343,0.510242,0.269041,0.627975,0.173193,0.006207,0.610356,0.439886,0.551916,0.825152,-0.100004,0.369137,-0.193711,0.766215,0.432113,0.302763,0.623988,0.370721,0.782412,0.993223,0.477023,0.534523,0.478978,0.407550,0.342608,0.272179,0.306668,0.147275,0.518898,0.339124,0.013788,0.761439,0.764940,0.832243,0.565723,0.488383,0.737292,0.070604,-0.167118,-0.048140,0.709831,0.115273,0.552703,0.648625,1.007979,0.971780,0.777522,0.794111,0.994880,0.624059,0.785463,0.462014,0.553607,0.583884,0.000435,0.347789,0.062890,0.315779,0.603316,0.519753,0.974111,0.859171,0.153605,0.662191,-0.003757,0.629896,0.223774,0.148209,0.272992,0.445510,0.410044,0.297384,0.416392,0.554313,1.105668,0.631090,0.957624,0.330801,0.592235,0.267062,0.641355,0.415496,0.436082,0.063140,0.114802,0.520974,0.784221,0.622511,0.634053,0.108542,0.257441,0.028376,0.698137,0.461227,0.686542,0.496786,0.596950,0.441363,0.749099,0.465200,0.186787,0.487301,0.718361,0.472156,0.181838,0.862838,0.518313,0.654103,0.749068,0.285213,0.623604,0.035424,0.721675,0.561516,0.000552,0.796076,0.888860,0.706240,0.334787,0.213689,0.369513,0.488256,0.564249,0.373651,0.610449,0.162482,0.689685,0.799061,0.678532,0.610396,0.716994,0.563263,0.469728,0.278625,0.694879,0.568165,0.668091,0.761849,0.505993,0.271858,0.074191,0.680922,0.192439,0.307739,0.931966,0.535720,0.774387,0.248165,0.678628,0.835401,0.873437,0.546813,0.915940,0.487623,0.818046,0.591987,0.225453,0.211445,0.387273,0.654408,0.751913,0.739009,0.871438,0.731889,0.651851,1.191520,0.210175,0.669634,0.134188,0.015235,0.655552,0.404547,0.111600,0.821861,0.672124,0.366436,0.611559,0.796554,0.488752,0.722080,0.783752,0.788568,0.499683,0.792489,0.512043,0.126670,0.848659,0.701841,0.960354,0.751268,0.802747,0.813524,0.796177,0.490735,0.449724,0.880108,0.729608,0.615919,0.351310,0.196047,0.622300,0.920972,0.738367,0.767227,0.894730,0.758224,0.696610,0.830287,0.818754,0.768396,0.657454,0.378821,0.455919,0.621229,0.406137,0.547114,0.654196,0.886880,1.071574,0.654243,1.030569,0.830836,0.657037,0.492599,-0.088679,0.669261,0.723420,0.116109,0.503747,0.156286,0.037151,0.325335,0.650355,0.540109,0.603274,0.459199,0.263149,0.474573,0.296468,0.580394,0.206531,0.551962,0.508885,0.703268,0.625176,0.979805,0.573776,0.829126,0.497002,0.577532,0.615813,-0.184443,0.065958,0.693112,0.421795,0.540871,0.173950,0.163911,0.503558,0.047624,0.639630,0.485154,0.647152,0.783677,0.973647,0.654826,0.337004,0.588712,0.356681,0.621322,0.476847,0.645278,0.826797,0.960483,0.406463,0.674766,0.043043,0.702665,0.546854,0.337957,0.268101,-0.030174,0.952223,0.652680,0.186128,0.438732,0.652168,0.973668,0.829670,0.319587,0.672236,0.643068,0.255534,0.411710,0.922077,0.293964,0.873170,0.276494,0.490065,0.470387,0.443938,0.392462,0.392317,0.205395,0.536963,-0.083644,0.069326,0.653372,0.727188,0.508292,0.823795,0.165017,0.470321,0.529957,0.361061,0.456070,0.677838,0.294879,0.705475,0.623978,0.328598,0.528016,0.419418,0.437209,0.814906,0.737737,0.542442,0.988436,0.696047,0.731936,0.863413,0.457107,0.172128,0.092263,0.143760,0.350983,0.395775,0.288004,0.861627,0.959991,0.744964,0.652534,0.376284,0.621898,0.416806,0.072030,0.030569,0.074741,0.435141,0.754150,0.826417,0.340649,0.583043,0.085412,0.406112,0.710948,0.278008,0.095062,-0.037319,0.519146,0.810865,0.308561,0.562776,0.288904,0.160841,0.928206,0.473181,0.289347,0.329814,0.129687,0.363809,0.024447,0.249122,0.215389,0.581976,0.741847,0.382226,0.174682,0.230637,0.444817,0.218918,0.145766,0.724753,0.462585,0.458858,0.540904,0.263671,0.204628,0.691371,0.200873,0.574508,0.077686,0.429752,0.226036,0.659625,0.583712,0.081484,0.470285,0.091187,0.027033,0.515595,0.517806,0.641765,0.326847,-0.140328,0.436953,-0.349387,0.321086,0.118125,0.457429,-0.014097,0.677834,0.124374,0.549982,0.554008,0.691248,0.015127,0.552906,0.586748,0.247928,0.389402,0.124735,0.310217,0.482248,0.663075,0.419453,0.598210,0.140113,0.244923,0.570274,0.434828,-0.102456,0.039426,0.207015,0.241298,0.047108,0.616006,0.479958,0.061898,-0.047752,-0.057595,0.348706,0.144466,-0.110270,0.656744,0.639734,0.547964,0.441083,0.342663,0.666166,0.700164,0.188208,0.872921,0.859582,0.911151,0.788266,0.192731,0.472089,0.758825,0.400558,0.264404,0.345100,0.047476,0.494531,0.110390,0.422357,0.291883,0.455470,0.531827,0.346597,-0.024408,0.646453,0.192199,0.423837,0.628035,0.099181,0.738754,0.804969,0.708482,0.724052,0.247963,0.870754,0.216312,0.620220,0.241784,0.623212,0.252237,0.848575,0.196971,0.714908,0.233587,0.619650,0.160505,0.579063,0.613294,0.167626,0.348162,0.699238,0.696891,0.739679,0.719968,0.652666,0.801362,0.533026,0.232847,0.117859,0.662299,0.189795,0.661367,0.813746,0.994090,0.011875,0.294841,0.735066,0.089865,0.173803,0.321097,0.751267,0.448065,0.711243,0.504598,0.448113,0.358271,0.364447,0.485044,0.180182,0.431054,0.557639,1.052788,0.639278,0.210137,0.581701,0.259683,0.681479,0.372908,0.618549,0.132633,0.773888,0.053207,0.844289,0.354897,0.361516,0.957080,0.914578,0.905094,0.345772,0.868027,1.069867,0.277779,0.228686,0.546268,0.720690,0.904461,1.012946,1.103559,0.586854,1.161880,0.198827,1.016512,0.132116,0.805966,0.134429,0.234762,0.520524,0.569994,0.209723,0.968535,0.031772,0.222977,0.940049,0.479876,0.973927,0.978991,1.071357,0.253999,0.493947,0.680008,0.973706,0.808622,0.311097,0.929126,0.318195,0.455744,0.256197,0.792933,0.865641,0.666386,0.018075,0.451547,0.879481,0.907254,0.710746,0.662648,0.150792,0.861324,0.085330,0.205413,0.388894,0.917287,0.367116,0.476959,0.602758,0.051480,0.415004,0.406939,0.266635,0.542084,0.279201,0.951709,0.612071,0.019796,0.669894,0.314525,0.259664,0.333547,0.198609,0.512162,0.839625,0.532121,0.513474}
	    		}
	    };

	    draw_menu();
 2043d10:	20446e00 	call	20446e0 <draw_menu>
	    int status;
	    int delay = 0;
 2043d14:	e03ffa15 	stw	zero,-24(fp)
	    unsigned short int flag = 0;
 2043d18:	e03ffb0d 	sth	zero,-20(fp)
	    while(1){
			status = IORD_ALTERA_AVALON_PIO_DATA(SW_BASE);
 2043d1c:	00808234 	movhi	r2,520
 2043d20:	108c1c04 	addi	r2,r2,12400
 2043d24:	10800037 	ldwio	r2,0(r2)
 2043d28:	e0bffd15 	stw	r2,-12(fp)

			if (status == 0x20000 || status == 0x8000 || status == 0x10000 ){ // switch 17,16,15
 2043d2c:	e0fffd17 	ldw	r3,-12(fp)
 2043d30:	008000b4 	movhi	r2,2
 2043d34:	18800626 	beq	r3,r2,2043d50 <main+0x98>
 2043d38:	e0fffd17 	ldw	r3,-12(fp)
 2043d3c:	00a00014 	movui	r2,32768
 2043d40:	18800326 	beq	r3,r2,2043d50 <main+0x98>
 2043d44:	e0fffd17 	ldw	r3,-12(fp)
 2043d48:	00800074 	movhi	r2,1
 2043d4c:	1880b81e 	bne	r3,r2,2044030 <main+0x378>
				int record = status;
 2043d50:	e0bffd17 	ldw	r2,-12(fp)
 2043d54:	e0bffe15 	stw	r2,-8(fp)
				short unsigned int nimages = 0;
 2043d58:	e03ffb8d 	sth	zero,-18(fp)
				draw_menu2(nimages);
 2043d5c:	e0bffb8b 	ldhu	r2,-18(fp)
 2043d60:	1009883a 	mov	r4,r2
 2043d64:	20448140 	call	2044814 <draw_menu2>
				while(IORD_ALTERA_AVALON_PIO_DATA(SW_BASE)!= 1){ //sw1
 2043d68:	00005e06 	br	2043ee4 <main+0x22c>
					if(IORD_ALTERA_AVALON_PIO_DATA(KEY_BASE) == 14 && (nimages<=80)){//key0
 2043d6c:	00808234 	movhi	r2,520
 2043d70:	108c1804 	addi	r2,r2,12384
 2043d74:	10800037 	ldwio	r2,0(r2)
 2043d78:	10800398 	cmpnei	r2,r2,14
 2043d7c:	1000131e 	bne	r2,zero,2043dcc <main+0x114>
 2043d80:	e0bffb8b 	ldhu	r2,-18(fp)
 2043d84:	10801468 	cmpgeui	r2,r2,81
 2043d88:	1000101e 	bne	r2,zero,2043dcc <main+0x114>
						nimages+=1;
 2043d8c:	e0bffb8b 	ldhu	r2,-18(fp)
 2043d90:	10800044 	addi	r2,r2,1
 2043d94:	e0bffb8d 	sth	r2,-18(fp)
						while(delay<1000000)
 2043d98:	00000306 	br	2043da8 <main+0xf0>
							delay++;
 2043d9c:	e0bffa17 	ldw	r2,-24(fp)
 2043da0:	10800044 	addi	r2,r2,1
 2043da4:	e0bffa15 	stw	r2,-24(fp)
				short unsigned int nimages = 0;
				draw_menu2(nimages);
				while(IORD_ALTERA_AVALON_PIO_DATA(SW_BASE)!= 1){ //sw1
					if(IORD_ALTERA_AVALON_PIO_DATA(KEY_BASE) == 14 && (nimages<=80)){//key0
						nimages+=1;
						while(delay<1000000)
 2043da8:	e0fffa17 	ldw	r3,-24(fp)
 2043dac:	008003f4 	movhi	r2,15
 2043db0:	10908fc4 	addi	r2,r2,16959
 2043db4:	10fff90e 	bge	r2,r3,2043d9c <__alt_data_end+0xfffc3d9c>
							delay++;
						delay=0;
 2043db8:	e03ffa15 	stw	zero,-24(fp)
						draw_menu2(nimages);
 2043dbc:	e0bffb8b 	ldhu	r2,-18(fp)
 2043dc0:	1009883a 	mov	r4,r2
 2043dc4:	20448140 	call	2044814 <draw_menu2>
 2043dc8:	00004606 	br	2043ee4 <main+0x22c>
					}
					else if (IORD_ALTERA_AVALON_PIO_DATA(KEY_BASE) == 13 && (nimages<=70)){//key1
 2043dcc:	00808234 	movhi	r2,520
 2043dd0:	108c1804 	addi	r2,r2,12384
 2043dd4:	10800037 	ldwio	r2,0(r2)
 2043dd8:	10800358 	cmpnei	r2,r2,13
 2043ddc:	1000131e 	bne	r2,zero,2043e2c <main+0x174>
 2043de0:	e0bffb8b 	ldhu	r2,-18(fp)
 2043de4:	108011e8 	cmpgeui	r2,r2,71
 2043de8:	1000101e 	bne	r2,zero,2043e2c <main+0x174>
						nimages+=10;
 2043dec:	e0bffb8b 	ldhu	r2,-18(fp)
 2043df0:	10800284 	addi	r2,r2,10
 2043df4:	e0bffb8d 	sth	r2,-18(fp)
						while(delay<1000000)
 2043df8:	00000306 	br	2043e08 <main+0x150>
							delay++;
 2043dfc:	e0bffa17 	ldw	r2,-24(fp)
 2043e00:	10800044 	addi	r2,r2,1
 2043e04:	e0bffa15 	stw	r2,-24(fp)
						delay=0;
						draw_menu2(nimages);
					}
					else if (IORD_ALTERA_AVALON_PIO_DATA(KEY_BASE) == 13 && (nimages<=70)){//key1
						nimages+=10;
						while(delay<1000000)
 2043e08:	e0fffa17 	ldw	r3,-24(fp)
 2043e0c:	008003f4 	movhi	r2,15
 2043e10:	10908fc4 	addi	r2,r2,16959
 2043e14:	10fff90e 	bge	r2,r3,2043dfc <__alt_data_end+0xfffc3dfc>
							delay++;
						delay=0;
 2043e18:	e03ffa15 	stw	zero,-24(fp)
						draw_menu2(nimages);
 2043e1c:	e0bffb8b 	ldhu	r2,-18(fp)
 2043e20:	1009883a 	mov	r4,r2
 2043e24:	20448140 	call	2044814 <draw_menu2>
 2043e28:	00002e06 	br	2043ee4 <main+0x22c>
					}
					else if ((IORD_ALTERA_AVALON_PIO_DATA(KEY_BASE) == 11) && (nimages>0)){//key2
 2043e2c:	00808234 	movhi	r2,520
 2043e30:	108c1804 	addi	r2,r2,12384
 2043e34:	10800037 	ldwio	r2,0(r2)
 2043e38:	108002d8 	cmpnei	r2,r2,11
 2043e3c:	1000121e 	bne	r2,zero,2043e88 <main+0x1d0>
 2043e40:	e0bffb8b 	ldhu	r2,-18(fp)
 2043e44:	10001026 	beq	r2,zero,2043e88 <main+0x1d0>
						nimages-=1;
 2043e48:	e0bffb8b 	ldhu	r2,-18(fp)
 2043e4c:	10bfffc4 	addi	r2,r2,-1
 2043e50:	e0bffb8d 	sth	r2,-18(fp)
						while(delay<1000000)
 2043e54:	00000306 	br	2043e64 <main+0x1ac>
							delay++;
 2043e58:	e0bffa17 	ldw	r2,-24(fp)
 2043e5c:	10800044 	addi	r2,r2,1
 2043e60:	e0bffa15 	stw	r2,-24(fp)
						delay=0;
						draw_menu2(nimages);
					}
					else if ((IORD_ALTERA_AVALON_PIO_DATA(KEY_BASE) == 11) && (nimages>0)){//key2
						nimages-=1;
						while(delay<1000000)
 2043e64:	e0fffa17 	ldw	r3,-24(fp)
 2043e68:	008003f4 	movhi	r2,15
 2043e6c:	10908fc4 	addi	r2,r2,16959
 2043e70:	10fff90e 	bge	r2,r3,2043e58 <__alt_data_end+0xfffc3e58>
							delay++;
						delay=0;
 2043e74:	e03ffa15 	stw	zero,-24(fp)
						draw_menu2(nimages);
 2043e78:	e0bffb8b 	ldhu	r2,-18(fp)
 2043e7c:	1009883a 	mov	r4,r2
 2043e80:	20448140 	call	2044814 <draw_menu2>
 2043e84:	00001706 	br	2043ee4 <main+0x22c>
					}
					else if ((IORD_ALTERA_AVALON_PIO_DATA(KEY_BASE) == 7) && (nimages>9)){//key3
 2043e88:	00808234 	movhi	r2,520
 2043e8c:	108c1804 	addi	r2,r2,12384
 2043e90:	10800037 	ldwio	r2,0(r2)
 2043e94:	108001d8 	cmpnei	r2,r2,7
 2043e98:	1000121e 	bne	r2,zero,2043ee4 <main+0x22c>
 2043e9c:	e0bffb8b 	ldhu	r2,-18(fp)
 2043ea0:	108002b0 	cmpltui	r2,r2,10
 2043ea4:	10000f1e 	bne	r2,zero,2043ee4 <main+0x22c>
						nimages-=10;
 2043ea8:	e0bffb8b 	ldhu	r2,-18(fp)
 2043eac:	10bffd84 	addi	r2,r2,-10
 2043eb0:	e0bffb8d 	sth	r2,-18(fp)
						while(delay<1000000)
 2043eb4:	00000306 	br	2043ec4 <main+0x20c>
							delay++;
 2043eb8:	e0bffa17 	ldw	r2,-24(fp)
 2043ebc:	10800044 	addi	r2,r2,1
 2043ec0:	e0bffa15 	stw	r2,-24(fp)
						delay=0;
						draw_menu2(nimages);
					}
					else if ((IORD_ALTERA_AVALON_PIO_DATA(KEY_BASE) == 7) && (nimages>9)){//key3
						nimages-=10;
						while(delay<1000000)
 2043ec4:	e0fffa17 	ldw	r3,-24(fp)
 2043ec8:	008003f4 	movhi	r2,15
 2043ecc:	10908fc4 	addi	r2,r2,16959
 2043ed0:	10fff90e 	bge	r2,r3,2043eb8 <__alt_data_end+0xfffc3eb8>
							delay++;
						delay=0;
 2043ed4:	e03ffa15 	stw	zero,-24(fp)
						draw_menu2(nimages);
 2043ed8:	e0bffb8b 	ldhu	r2,-18(fp)
 2043edc:	1009883a 	mov	r4,r2
 2043ee0:	20448140 	call	2044814 <draw_menu2>

			if (status == 0x20000 || status == 0x8000 || status == 0x10000 ){ // switch 17,16,15
				int record = status;
				short unsigned int nimages = 0;
				draw_menu2(nimages);
				while(IORD_ALTERA_AVALON_PIO_DATA(SW_BASE)!= 1){ //sw1
 2043ee4:	00808234 	movhi	r2,520
 2043ee8:	108c1c04 	addi	r2,r2,12400
 2043eec:	10800037 	ldwio	r2,0(r2)
 2043ef0:	10800058 	cmpnei	r2,r2,1
 2043ef4:	103f9d1e 	bne	r2,zero,2043d6c <__alt_data_end+0xfffc3d6c>
						draw_menu2(nimages);
					}
					else
						;
				}
				if(record == 0x20000 ){//version1
 2043ef8:	e0fffe17 	ldw	r3,-8(fp)
 2043efc:	008000b4 	movhi	r2,2
 2043f00:	1880171e 	bne	r3,r2,2043f60 <main+0x2a8>
					draw_menu3();
 2043f04:	20449440 	call	2044944 <draw_menu3>
					fast_version(network,hFat,nimages+21);
 2043f08:	e0bffb8b 	ldhu	r2,-18(fp)
 2043f0c:	10800544 	addi	r2,r2,21
 2043f10:	10bfffcc 	andi	r2,r2,65535
 2043f14:	040081b4 	movhi	r16,518
 2043f18:	840bc904 	addi	r16,r16,12068
 2043f1c:	d89ea715 	stw	r2,31388(sp)
 2043f20:	e0bffc17 	ldw	r2,-16(fp)
 2043f24:	d89ea615 	stw	r2,31384(sp)
 2043f28:	d809883a 	mov	r4,sp
 2043f2c:	80800404 	addi	r2,r16,16
 2043f30:	00dea604 	movi	r3,31384
 2043f34:	180d883a 	mov	r6,r3
 2043f38:	100b883a 	mov	r5,r2
 2043f3c:	20501a40 	call	20501a4 <memcpy>
 2043f40:	81000017 	ldw	r4,0(r16)
 2043f44:	81400117 	ldw	r5,4(r16)
 2043f48:	81800217 	ldw	r6,8(r16)
 2043f4c:	81c00317 	ldw	r7,12(r16)
 2043f50:	20423380 	call	2042338 <fast_version>
					flag = 1;
 2043f54:	00800044 	movi	r2,1
 2043f58:	e0bffb0d 	sth	r2,-20(fp)
	    int delay = 0;
	    unsigned short int flag = 0;
	    while(1){
			status = IORD_ALTERA_AVALON_PIO_DATA(SW_BASE);

			if (status == 0x20000 || status == 0x8000 || status == 0x10000 ){ // switch 17,16,15
 2043f5c:	00004906 	br	2044084 <main+0x3cc>
				if(record == 0x20000 ){//version1
					draw_menu3();
					fast_version(network,hFat,nimages+21);
					flag = 1;
				}
				else if(record == 0x10000){//version2
 2043f60:	e0fffe17 	ldw	r3,-8(fp)
 2043f64:	00800074 	movhi	r2,1
 2043f68:	1880171e 	bne	r3,r2,2043fc8 <main+0x310>
					draw_menu3();
 2043f6c:	20449440 	call	2044944 <draw_menu3>
					fast_version3(network,hFat,nimages+21);
 2043f70:	e0bffb8b 	ldhu	r2,-18(fp)
 2043f74:	10800544 	addi	r2,r2,21
 2043f78:	10bfffcc 	andi	r2,r2,65535
 2043f7c:	040081b4 	movhi	r16,518
 2043f80:	840bc904 	addi	r16,r16,12068
 2043f84:	d89ea715 	stw	r2,31388(sp)
 2043f88:	e0bffc17 	ldw	r2,-16(fp)
 2043f8c:	d89ea615 	stw	r2,31384(sp)
 2043f90:	d809883a 	mov	r4,sp
 2043f94:	80800404 	addi	r2,r16,16
 2043f98:	00dea604 	movi	r3,31384
 2043f9c:	180d883a 	mov	r6,r3
 2043fa0:	100b883a 	mov	r5,r2
 2043fa4:	20501a40 	call	20501a4 <memcpy>
 2043fa8:	81000017 	ldw	r4,0(r16)
 2043fac:	81400117 	ldw	r5,4(r16)
 2043fb0:	81800217 	ldw	r6,8(r16)
 2043fb4:	81c00317 	ldw	r7,12(r16)
 2043fb8:	2042f640 	call	2042f64 <fast_version3>
					flag = 1;
 2043fbc:	00800044 	movi	r2,1
 2043fc0:	e0bffb0d 	sth	r2,-20(fp)
	    int delay = 0;
	    unsigned short int flag = 0;
	    while(1){
			status = IORD_ALTERA_AVALON_PIO_DATA(SW_BASE);

			if (status == 0x20000 || status == 0x8000 || status == 0x10000 ){ // switch 17,16,15
 2043fc4:	00002f06 	br	2044084 <main+0x3cc>
				else if(record == 0x10000){//version2
					draw_menu3();
					fast_version3(network,hFat,nimages+21);
					flag = 1;
				}
				else if(record == 0x8000){//version3
 2043fc8:	e0fffe17 	ldw	r3,-8(fp)
 2043fcc:	00a00014 	movui	r2,32768
 2043fd0:	18802c1e 	bne	r3,r2,2044084 <main+0x3cc>
					draw_menu3();
 2043fd4:	20449440 	call	2044944 <draw_menu3>
					fast_version1(network,hFat,nimages+21);
 2043fd8:	e0bffb8b 	ldhu	r2,-18(fp)
 2043fdc:	10800544 	addi	r2,r2,21
 2043fe0:	10bfffcc 	andi	r2,r2,65535
 2043fe4:	040081b4 	movhi	r16,518
 2043fe8:	840bc904 	addi	r16,r16,12068
 2043fec:	d89ea715 	stw	r2,31388(sp)
 2043ff0:	e0bffc17 	ldw	r2,-16(fp)
 2043ff4:	d89ea615 	stw	r2,31384(sp)
 2043ff8:	d809883a 	mov	r4,sp
 2043ffc:	80800404 	addi	r2,r16,16
 2044000:	00dea604 	movi	r3,31384
 2044004:	180d883a 	mov	r6,r3
 2044008:	100b883a 	mov	r5,r2
 204400c:	20501a40 	call	20501a4 <memcpy>
 2044010:	81000017 	ldw	r4,0(r16)
 2044014:	81400117 	ldw	r5,4(r16)
 2044018:	81800217 	ldw	r6,8(r16)
 204401c:	81c00317 	ldw	r7,12(r16)
 2044020:	20414640 	call	2041464 <fast_version1>
					flag = 1;
 2044024:	00800044 	movi	r2,1
 2044028:	e0bffb0d 	sth	r2,-20(fp)
	    int delay = 0;
	    unsigned short int flag = 0;
	    while(1){
			status = IORD_ALTERA_AVALON_PIO_DATA(SW_BASE);

			if (status == 0x20000 || status == 0x8000 || status == 0x10000 ){ // switch 17,16,15
 204402c:	00001506 	br	2044084 <main+0x3cc>
				else{
					;
				}

			}
			else if (status == 0x4000){ // switch 14
 2044030:	e0bffd17 	ldw	r2,-12(fp)
 2044034:	10900018 	cmpnei	r2,r2,16384
 2044038:	10001b1e 	bne	r2,zero,20440a8 <main+0x3f0>
				step_version(network,hFat);
 204403c:	040081b4 	movhi	r16,518
 2044040:	840bc904 	addi	r16,r16,12068
 2044044:	e0bffc17 	ldw	r2,-16(fp)
 2044048:	d89ea615 	stw	r2,31384(sp)
 204404c:	d809883a 	mov	r4,sp
 2044050:	80800404 	addi	r2,r16,16
 2044054:	00dea604 	movi	r3,31384
 2044058:	180d883a 	mov	r6,r3
 204405c:	100b883a 	mov	r5,r2
 2044060:	20501a40 	call	20501a4 <memcpy>
 2044064:	81000017 	ldw	r4,0(r16)
 2044068:	81400117 	ldw	r5,4(r16)
 204406c:	81800217 	ldw	r6,8(r16)
 2044070:	81c00317 	ldw	r7,12(r16)
 2044074:	204070c0 	call	204070c <step_version>
				flag = 1;
 2044078:	00800044 	movi	r2,1
 204407c:	e0bffb0d 	sth	r2,-20(fp)
 2044080:	00000906 	br	20440a8 <main+0x3f0>
	    int delay = 0;
	    unsigned short int flag = 0;
	    while(1){
			status = IORD_ALTERA_AVALON_PIO_DATA(SW_BASE);

			if (status == 0x20000 || status == 0x8000 || status == 0x10000 ){ // switch 17,16,15
 2044084:	0001883a 	nop
			}

			else{
				;
			}
			while ( flag == 1){
 2044088:	00000706 	br	20440a8 <main+0x3f0>
				if(IORD_ALTERA_AVALON_PIO_DATA(KEY_BASE) == 14){
 204408c:	00808234 	movhi	r2,520
 2044090:	108c1804 	addi	r2,r2,12384
 2044094:	10800037 	ldwio	r2,0(r2)
 2044098:	10800398 	cmpnei	r2,r2,14
 204409c:	1000021e 	bne	r2,zero,20440a8 <main+0x3f0>
					flag=0;
 20440a0:	e03ffb0d 	sth	zero,-20(fp)
					draw_menu();
 20440a4:	20446e00 	call	20446e0 <draw_menu>
			}

			else{
				;
			}
			while ( flag == 1){
 20440a8:	e0bffb0b 	ldhu	r2,-20(fp)
 20440ac:	10800060 	cmpeqi	r2,r2,1
 20440b0:	103ff61e 	bne	r2,zero,204408c <__alt_data_end+0xfffc408c>
				if(IORD_ALTERA_AVALON_PIO_DATA(KEY_BASE) == 14){
					flag=0;
					draw_menu();
				}
			}
	    }
 20440b4:	003f1906 	br	2043d1c <__alt_data_end+0xfffc3d1c>
		free(hFile);
//		listfiles(hFat);
	}

	else
		printf("Failed to mount the SDCARD!\r\nPlease insert the SDCARD into DE2-115\r\n");
 20440b8:	010081b4 	movhi	r4,518
 20440bc:	210b1504 	addi	r4,r4,11348
 20440c0:	20505600 	call	2050560 <puts>

	Fat_Unmount(hFat);
 20440c4:	e13ffc17 	ldw	r4,-16(fp)
 20440c8:	2044cec0 	call	2044cec <Fat_Unmount>
	printf("\n\n program finish, fat unmounted\n");
 20440cc:	010081b4 	movhi	r4,518
 20440d0:	210b2604 	addi	r4,r4,11416
 20440d4:	20505600 	call	2050560 <puts>
	return 0;
 20440d8:	0005883a 	mov	r2,zero
}
 20440dc:	e6ffff04 	addi	sp,fp,-4
 20440e0:	dfc00217 	ldw	ra,8(sp)
 20440e4:	df000117 	ldw	fp,4(sp)
 20440e8:	dc000017 	ldw	r16,0(sp)
 20440ec:	dec00304 	addi	sp,sp,12
 20440f0:	f800283a 	ret

020440f4 <displayimage>:
//----------- functions ----------------------
//--------------------------------------------
void displayimage(int *pixels,int predict,int label, float time){
 20440f4:	defff104 	addi	sp,sp,-60
 20440f8:	dfc00e15 	stw	ra,56(sp)
 20440fc:	df000d15 	stw	fp,52(sp)
 2044100:	df000d04 	addi	fp,sp,52
 2044104:	e13ffc15 	stw	r4,-16(fp)
 2044108:	e17ffd15 	stw	r5,-12(fp)
 204410c:	e1bffe15 	stw	r6,-8(fp)
 2044110:	e1ffff15 	stw	r7,-4(fp)
	alt_up_char_buffer_dev * char_buffer = NULL ;
 2044114:	e03ff515 	stw	zero,-44(fp)
	char_buffer = alt_up_char_buffer_open_dev ("/dev/video_character_buffer_with_dma_0");
 2044118:	010081b4 	movhi	r4,518
 204411c:	210ad304 	addi	r4,r4,11084
 2044120:	2060fa80 	call	2060fa8 <alt_up_char_buffer_open_dev>
 2044124:	e0bff515 	stw	r2,-44(fp)
	alt_up_char_buffer_init(char_buffer);
 2044128:	e13ff517 	ldw	r4,-44(fp)
 204412c:	2060f280 	call	2060f28 <alt_up_char_buffer_init>
	alt_up_char_buffer_clear(char_buffer);
 2044130:	e13ff517 	ldw	r4,-44(fp)
 2044134:	20611ac0 	call	20611ac <alt_up_char_buffer_clear>

	int i=0;
 2044138:	e03ff315 	stw	zero,-52(fp)
	int j= 0;
 204413c:	e03ff415 	stw	zero,-48(fp)
	int idx = 0;
 2044140:	e03ff615 	stw	zero,-40(fp)

	for ( i = 0; i<28; i++){
 2044144:	e03ff315 	stw	zero,-52(fp)
 2044148:	00002806 	br	20441ec <displayimage+0xf8>
		for ( j = 0;j<28;j++){
 204414c:	e03ff415 	stw	zero,-48(fp)
 2044150:	00002006 	br	20441d4 <displayimage+0xe0>
			idx=i*28+j;
 2044154:	e0bff317 	ldw	r2,-52(fp)
 2044158:	10c00724 	muli	r3,r2,28
 204415c:	e0bff417 	ldw	r2,-48(fp)
 2044160:	1885883a 	add	r2,r3,r2
 2044164:	e0bff615 	stw	r2,-40(fp)
			if(*(pixels+idx)>128)
 2044168:	e0bff617 	ldw	r2,-40(fp)
 204416c:	1085883a 	add	r2,r2,r2
 2044170:	1085883a 	add	r2,r2,r2
 2044174:	1007883a 	mov	r3,r2
 2044178:	e0bffc17 	ldw	r2,-16(fp)
 204417c:	10c5883a 	add	r2,r2,r3
 2044180:	10800017 	ldw	r2,0(r2)
 2044184:	10802050 	cmplti	r2,r2,129
 2044188:	1000081e 	bne	r2,zero,20441ac <displayimage+0xb8>
				alt_up_char_buffer_draw(char_buffer ,'1',j,i);
 204418c:	e0bff417 	ldw	r2,-48(fp)
 2044190:	e0fff317 	ldw	r3,-52(fp)
 2044194:	180f883a 	mov	r7,r3
 2044198:	100d883a 	mov	r6,r2
 204419c:	01400c44 	movi	r5,49
 20441a0:	e13ff517 	ldw	r4,-44(fp)
 20441a4:	2060fe40 	call	2060fe4 <alt_up_char_buffer_draw>
 20441a8:	00000706 	br	20441c8 <displayimage+0xd4>
			else
				alt_up_char_buffer_draw(char_buffer ,'0',j,i);
 20441ac:	e0bff417 	ldw	r2,-48(fp)
 20441b0:	e0fff317 	ldw	r3,-52(fp)
 20441b4:	180f883a 	mov	r7,r3
 20441b8:	100d883a 	mov	r6,r2
 20441bc:	01400c04 	movi	r5,48
 20441c0:	e13ff517 	ldw	r4,-44(fp)
 20441c4:	2060fe40 	call	2060fe4 <alt_up_char_buffer_draw>
	int i=0;
	int j= 0;
	int idx = 0;

	for ( i = 0; i<28; i++){
		for ( j = 0;j<28;j++){
 20441c8:	e0bff417 	ldw	r2,-48(fp)
 20441cc:	10800044 	addi	r2,r2,1
 20441d0:	e0bff415 	stw	r2,-48(fp)
 20441d4:	e0bff417 	ldw	r2,-48(fp)
 20441d8:	10800710 	cmplti	r2,r2,28
 20441dc:	103fdd1e 	bne	r2,zero,2044154 <__alt_data_end+0xfffc4154>

	int i=0;
	int j= 0;
	int idx = 0;

